 ray

 Timestamp is 56365672 (Mon Nov 02 02:14:10 2015)

 Preferred load address is 00400000

 Start         Length     Name                   Class
 0001:00000000 000192aaH .text                   CODE
 0001:000192b0 00000038H .text$di                CODE
 0001:000192f0 0001340cH .text$mn                CODE
 0001:0002c700 000014b3H .text$x                 CODE
 0001:0002dbc0 00000035H .text$yd                CODE
 0002:00000000 00000474H .idata$5                DATA
 0002:00000474 00000004H .CRT$XCA                DATA
 0002:00000478 00000004H .CRT$XCAA               DATA
 0002:0000047c 00000004H .CRT$XCL                DATA
 0002:00000480 00000010H .CRT$XCU                DATA
 0002:00000490 00000004H .CRT$XCZ                DATA
 0002:00000494 00000004H .CRT$XIA                DATA
 0002:00000498 00000004H .CRT$XIAA               DATA
 0002:0000049c 00000004H .CRT$XIC                DATA
 0002:000004a0 00000004H .CRT$XIY                DATA
 0002:000004a4 00000004H .CRT$XIZ                DATA
 0002:000004b0 00001138H .rdata                  DATA
 0002:000015e8 00000da8H .rdata$r                DATA
 0002:00002390 00000004H .rtc$IAA                DATA
 0002:00002394 00000004H .rtc$IZZ                DATA
 0002:00002398 00000004H .rtc$TAA                DATA
 0002:0000239c 00000004H .rtc$TZZ                DATA
 0002:000023a0 00001804H .xdata$x                DATA
 0002:00003ba4 00000000H .edata                  DATA
 0002:00003ba4 000000a0H .idata$2                DATA
 0002:00003c44 00000014H .idata$3                DATA
 0002:00003c58 00000474H .idata$4                DATA
 0002:000040cc 00001a50H .idata$6                DATA
 0003:00000000 00000d60H .data                   DATA
 0003:00000d60 00000654H .data$r                 DATA
 0003:000013b8 00001ac4H .bss                    DATA
 0004:00000000 00000058H .rsrc$01                DATA
 0004:00000060 00000180H .rsrc$02                DATA

  Address         Publics by Value              Rva+Base       Lib:Object

 0000:00000000       ___guard_flags             00000000     <absolute>
 0000:00000000       ___guard_fids_count        00000000     <absolute>
 0000:00000000       ___safe_se_handler_count   00000000     <absolute>
 0000:00000000       __except_list              00000000     <absolute>
 0000:00000000       ___guard_fids_table        00000000     <absolute>
 0000:00000000       ___safe_se_handler_table   00000000     <absolute>
 0000:00009876       __fltused                  00009876     <absolute>
 0000:00009876       __ldused                   00009876     <absolute>
 0000:00000000       ___ImageBase               00400000     <linker-defined>
 0001:00000000       ?visual@Fl@@SAHH@Z         00401000 f   fltkd:Fl_visual.obj
 0001:00000070       ?event_inside@Fl@@SAHHHHH@Z 00401070 f   fltkd:Fl.obj
 0001:000000c0       ?event_inside@Fl@@SAHPBVFl_Widget@@@Z 004010c0 f   fltkd:Fl.obj
 0001:00000129       ?add_timeout@Fl@@SAXNP6AXPAX@Z0@Z 00401129 f   fltkd:Fl.obj
 0001:000001d2       ?repeat_timeout@Fl@@SAXNP6AXPAX@Z0@Z 004011d2 f   fltkd:Fl.obj
 0001:00000295       ?has_timeout@Fl@@SAHP6AXPAX@Z0@Z 00401295 f   fltkd:Fl.obj
 0001:000002d7       ?remove_timeout@Fl@@SAXP6AXPAX@Z0@Z 004012d7 f   fltkd:Fl.obj
 0001:0000033a       ?add_check@Fl@@SAXP6AXPAX@Z0@Z 0040133a f   fltkd:Fl.obj
 0001:000003ae       ?remove_check@Fl@@SAXP6AXPAX@Z0@Z 004013ae f   fltkd:Fl.obj
 0001:00000426       ?wait@Fl@@SANN@Z           00401426 f   fltkd:Fl.obj
 0001:000005af       ?run@Fl@@SAHXZ             004015af f   fltkd:Fl.obj
 0001:000005d5       ?wait@Fl@@SAHXZ            004015d5 f   fltkd:Fl.obj
 0001:000005fa       ?check@Fl@@SAHXZ           004015fa f   fltkd:Fl.obj
 0001:00000619       ?ready@Fl@@SAHXZ           00401619 f   fltkd:Fl.obj
 0001:00000655       ?fl_find@@YAPAVFl_Window@@PAUHWND__@@@Z 00401655 f   fltkd:Fl.obj
 0001:000006c9       ?first_window@Fl@@SAPAVFl_Window@@XZ 004016c9 f   fltkd:Fl.obj
 0001:000006f6       ?next_window@Fl@@SAPAVFl_Window@@PBV2@@Z 004016f6 f   fltkd:Fl.obj
 0001:0000072d       ?first_window@Fl@@SAXPAVFl_Window@@@Z 0040172d f   fltkd:Fl.obj
 0001:0000075b       ?redraw@Fl@@SAXXZ          0040175b f   fltkd:Fl.obj
 0001:00000789       ?flush@Fl@@SAXXZ           00401789 f   fltkd:Fl.obj
 0001:0000083f       ?add_handler@Fl@@SAXP6AHH@Z@Z 0040183f f   fltkd:Fl.obj
 0001:00000879       ?focus@Fl@@SAXPAVFl_Widget@@@Z 00401879 f   fltkd:Fl.obj
 0001:000008ee       ?belowmouse@Fl@@SAXPAVFl_Widget@@@Z 004018ee f   fltkd:Fl.obj
 0001:0000094c       ?pushed@Fl@@SAXPAVFl_Widget@@@Z 0040194c f   fltkd:Fl.obj
 0001:00000959       ?fl_fix_focus@@YAXXZ       00401959 f   fltkd:Fl.obj
 0001:00000a8c       ?fl_throw_focus@@YAXPAVFl_Widget@@@Z 00401a8c f   fltkd:Fl.obj
 0001:00000b30       ?handle@Fl@@SAHHPAVFl_Window@@@Z 00401b30 f   fltkd:Fl.obj
 0001:00001031       ?hide@Fl_Window@@UAEXXZ    00402031 f   fltkd:Fl.obj
 0001:00001204       ??1Fl_Window@@UAE@XZ       00402204 f   fltkd:Fl.obj
 0001:00001255       ?handle@Fl_Window@@UAEHH@Z 00402255 f   fltkd:Fl.obj
 0001:00001330       ?selection_owner@Fl@@SAXPAVFl_Widget@@@Z 00402330 f   fltkd:Fl.obj
 0001:0000139a       ?redraw@Fl_Widget@@QAEXXZ  0040239a f   fltkd:Fl.obj
 0001:000013b2       ?damage@Fl_Widget@@QAEXE@Z 004023b2 f   fltkd:Fl.obj
 0001:00001459       ?damage@Fl_Widget@@QAEXEHHHH@Z 00402459 f   fltkd:Fl.obj
 0001:0000162c       ?flush@Fl_Window@@MAEXXZ   0040262c f   fltkd:Fl.obj
 0001:00001670       ?modal@Fl@@SAPAVFl_Window@@XZ 00402670 f i fltkd:Fl.obj
 0001:00001680       ?grab@Fl@@SAPAVFl_Window@@XZ 00402680 f i fltkd:Fl.obj
 0001:00001690       ?compose_reset@Fl@@SAXXZ   00402690 f i fltkd:Fl.obj
 0001:000016a0       ?belowmouse@Fl@@SAPAVFl_Widget@@XZ 004026a0 f i fltkd:Fl.obj
 0001:000016b0       ?pushed@Fl@@SAPAVFl_Widget@@XZ 004026b0 f i fltkd:Fl.obj
 0001:000016c0       ?focus@Fl@@SAPAVFl_Widget@@XZ 004026c0 f i fltkd:Fl.obj
 0001:000016d0       ?selection_owner@Fl@@SAPAVFl_Widget@@XZ 004026d0 f i fltkd:Fl.obj
 0001:000016e0       ?event_key@Fl@@SAHXZ       004026e0 f i fltkd:Fl.obj
 0001:000016f0       ?event_text@Fl@@SAPBDXZ    004026f0 f i fltkd:Fl.obj
 0001:00001700       ?type@Fl_Widget@@QBEEXZ    00402700 f i fltkd:Fl.obj
 0001:00001720       ?do_callback@Fl_Widget@@QAEXXZ 00402720 f i fltkd:Fl.obj
 0001:00001740       ?damage@Fl_Widget@@QBEEXZ  00402740 f i fltkd:Fl.obj
 0001:00001760       ?clear_damage@Fl_Widget@@QAEXE@Z 00402760 f i fltkd:Fl.obj
 0001:00001780       ?set_visible@Fl_Widget@@QAEXXZ 00402780 f i fltkd:Fl.obj
 0001:000017a0       ?clear_visible@Fl_Widget@@QAEXXZ 004027a0 f i fltkd:Fl.obj
 0001:000017c0       ?modal@Fl_Window@@QBEEXZ   004027c0 f i fltkd:Fl.obj
 0001:000017e0       ?flags@Fl_Widget@@IBEEXZ   004027e0 f i fltkd:Fl.obj
 0001:00001800       ?non_modal@Fl_Window@@QBEEXZ 00402800 f i fltkd:Fl.obj
 0001:00001820       ??_EFl_Window@@UAEPAXI@Z   00402820 f i fltkd:Fl.obj
 0001:00001820       ??_GFl_Window@@UAEPAXI@Z   00402820 f i fltkd:Fl.obj
 0001:00001850       ?visible@Fl_Widget@@QBEHXZ 00402850 f i fltkd:Fl.obj
 0001:00001870       ?shown@Fl_Window@@QAEHXZ   00402870 f i fltkd:Fl.obj
 0001:00001890       ?damage@Fl@@SAXH@Z         00402890 f i fltkd:Fl.obj
 0001:000018a0       ?XRectangleRegion@@YAPAUHRGN__@@HHHH@Z 004028a0 f i fltkd:Fl.obj
 0001:000018d0       ?XDestroyRegion@@YAXPAUHRGN__@@@Z 004028d0 f i fltkd:Fl.obj
 0001:000018e0       ?i@Fl_X@@SAPAV1@PBVFl_Window@@@Z 004028e0 f i fltkd:Fl.obj
 0001:000018f0       ?flush@Fl_X@@QAEXXZ        004028f0 f i fltkd:Fl.obj
 0001:00001910       ?fl_xid@@YAPAUHWND__@@PBVFl_Window@@@Z 00402910 f i fltkd:Fl.obj
 0001:00001930       ?fl_message@@YAXPBDZZ      00402930 f   fltkd:fl_ask.obj
 0001:00001ef6       ?fl_alert@@YAXPBDZZ        00402ef6 f   fltkd:fl_ask.obj
 0001:00001f42       ?fl_ask@@YAHPBDZZ          00402f42 f   fltkd:fl_ask.obj
 0001:00001f87       ?fl_choice@@YAHPBD000ZZ    00402f87 f   fltkd:fl_ask.obj
 0001:00001fc8       ?fl_message_icon@@YAPAVFl_Widget@@XZ 00402fc8 f   fltkd:fl_ask.obj
 0001:00001fd7       ?fl_input@@YAPBDPBD0ZZ     00402fd7 f   fltkd:fl_ask.obj
 0001:000020b5       ?fl_password@@YAPBDPBD0ZZ  004030b5 f   fltkd:fl_ask.obj
 0001:000020f0       ?position@Fl_Widget@@QAEXHH@Z 004030f0 f i fltkd:fl_ask.obj
 0001:00002120       ?size@Fl_Widget@@QAEXHH@Z  00403120 f i fltkd:fl_ask.obj
 0001:00002150       ?box@Fl_Widget@@QAEXW4Fl_Boxtype@@@Z 00403150 f i fltkd:fl_ask.obj
 0001:00002170       ?color@Fl_Widget@@QAEXE@Z  00403170 f i fltkd:fl_ask.obj
 0001:00002190       ?label@Fl_Widget@@QAEXPBD@Z 00403190 f i fltkd:fl_ask.obj
 0001:000021b0       ?labelcolor@Fl_Widget@@QAEXE@Z 004031b0 f i fltkd:fl_ask.obj
 0001:000021d0       ??0Fl_Box@@QAE@HHHHPBD@Z   004031d0 f i fltkd:fl_ask.obj
 0001:00002210       ?shortcut@Fl_Button@@QAEXPBD@Z 00403210 f i fltkd:fl_ask.obj
 0001:00002240       ?shortcut@Fl_Button@@QAEXH@Z 00403240 f i fltkd:fl_ask.obj
 0001:00002260       ??0Fl_Return_Button@@QAE@HHHHPBD@Z 00403260 f i fltkd:fl_ask.obj
 0001:000022a0       ??1Fl_Slider@@UAE@XZ       004032a0 f i fltkd:Fl_Value_Slider.obj
 0001:000022a0       ??1Fl_Return_Button@@UAE@XZ 004032a0 f i fltkd:fl_ask.obj
 0001:000022c0       ?set_modal@Fl_Window@@QAEXXZ 004032c0 f i fltkd:fl_ask.obj
 0001:000022e0       ?set_flag@Fl_Widget@@IAEXH@Z 004032e0 f i fltkd:fl_ask.obj
 0001:00002300       ?value@Fl_Input_@@QBEPBDXZ 00403300 f i fltkd:fl_ask.obj
 0001:00002300       ?menu@Fl_Menu_@@QBEPBUFl_Menu_Item@@XZ 00403300 f i fltkd:Fl_Menu_Bar.obj
 0001:00002300       ?shortcut@Fl_Button@@QBEHXZ 00403300 f i fltkd:Fl_Button.obj
 0001:00002320       ?_Fl_Window@Fl_Window@@AAEXXZ 00403320 f   fltkd:Fl_Window.obj
 0001:00002392       ??0Fl_Window@@QAE@HHHHPBD@Z 00403392 f   fltkd:Fl_Window.obj
 0001:00002406       ??0Fl_Window@@QAE@HHPBD@Z  00403406 f   fltkd:Fl_Window.obj
 0001:0000247e       ?window@Fl_Widget@@QBEPAVFl_Window@@XZ 0040347e f   fltkd:Fl_Window.obj
 0001:000024c6       ?x_root@Fl_Window@@QBEHXZ  004034c6 f   fltkd:Fl_Window.obj
 0001:00002504       ?y_root@Fl_Window@@QBEHXZ  00403504 f   fltkd:Fl_Window.obj
 0001:00002542       ?draw@Fl_Window@@MAEXXZ    00403542 f   fltkd:Fl_Window.obj
 0001:00002599       ?label@Fl_Window@@QAEXPBD@Z 00403599 f   fltkd:Fl_Window.obj
 0001:000025bb       ?iconlabel@Fl_Window@@QAEXPBD@Z 004035bb f   fltkd:Fl_Window.obj
 0001:000025dd       ?default_atclose@Fl@@SAXPAVFl_Window@@PAX@Z 004035dd f   fltkd:Fl_Window.obj
 0001:000025fd       ?default_callback@Fl_Window@@SAXPAV1@PAX@Z 004035fd f   fltkd:Fl_Window.obj
 0001:00002620       ?x@Fl_Widget@@IAEXH@Z      00403620 f i fltkd:Fl_Window.obj
 0001:00002640       ?y@Fl_Widget@@IAEXH@Z      00403640 f i fltkd:Fl_Window.obj
 0001:00002660       ?labeltype@Fl_Widget@@QAEXW4Fl_Labeltype@@@Z 00403660 f i fltkd:Fl_Window.obj
 0001:00002680       ?current@Fl_Group@@SAXPAV1@@Z 00403680 f i fltkd:Fl_Window.obj
 0001:00002690       ?iconlabel@Fl_Window@@QBEPBDXZ 00403690 f i fltkd:Fl_Window.obj
 0001:000026b0       ?can_do@Fl_Gl_Window@@CAHHPBH@Z 004036b0 f   fltkd:Fl_Gl_Window.obj
 0001:000026cb       ?show@Fl_Gl_Window@@UAEXXZ 004036cb f   fltkd:Fl_Gl_Window.obj
 0001:00002728       ?invalidate@Fl_Gl_Window@@QAEXXZ 00403728 f   fltkd:Fl_Gl_Window.obj
 0001:0000273d       ?mode@Fl_Gl_Window@@AAEHHPBH@Z 0040373d f   fltkd:Fl_Gl_Window.obj
 0001:000027b5       ?make_current@Fl_Gl_Window@@QAEXXZ 004037b5 f   fltkd:Fl_Gl_Window.obj
 0001:0000285b       ?ortho@Fl_Gl_Window@@QAEXXZ 0040385b f   fltkd:Fl_Gl_Window.obj
 0001:0000290d       ?swap_buffers@Fl_Gl_Window@@QAEXXZ 0040390d f   fltkd:Fl_Gl_Window.obj
 0001:00002930       ?flush@Fl_Gl_Window@@UAEXXZ 00403930 f   fltkd:Fl_Gl_Window.obj
 0001:00002dd2       ?resize@Fl_Gl_Window@@UAEXHHHH@Z 00403dd2 f   fltkd:Fl_Gl_Window.obj
 0001:00002e1b       ?context@Fl_Gl_Window@@QAEXPAXH@Z 00403e1b f   fltkd:Fl_Gl_Window.obj
 0001:00002e85       ?hide@Fl_Gl_Window@@UAEXXZ 00403e85 f   fltkd:Fl_Gl_Window.obj
 0001:00002ed1       ??1Fl_Gl_Window@@UAE@XZ    00403ed1 f   fltkd:Fl_Gl_Window.obj
 0001:00002f22       ?init@Fl_Gl_Window@@AAEXXZ 00403f22 f   fltkd:Fl_Gl_Window.obj
 0001:00002f71       ?draw_overlay@Fl_Gl_Window@@EAEXXZ 00403f71 f   fltkd:Fl_Gl_Window.obj
 0001:00002f80       ?valid@Fl_Gl_Window@@QAEXD@Z 00403f80 f i fltkd:Fl_Gl_Window.obj
 0001:00002fa0       ?default_callback@Fl_Widget@@SAXPAV1@PAX@Z 00403fa0 f   fltkd:Fl_Widget.obj
 0001:00003005       ?readqueue@Fl@@SAPAVFl_Widget@@XZ 00404005 f   fltkd:Fl_Widget.obj
 0001:00003051       ?handle@Fl_Widget@@UAEHH@Z 00404051 f   fltkd:Fl_Widget.obj
 0001:00003060       ??0Fl_Widget@@IAE@HHHHPBD@Z 00404060 f   fltkd:Fl_Widget.obj
 0001:0000313e       ?resize@Fl_Widget@@UAEXHHHH@Z 0040413e f   fltkd:Fl_Widget.obj
 0001:00003177       ?damage_resize@Fl_Widget@@QAEHHHHH@Z 00404177 f   fltkd:Fl_Widget.obj
 0001:000031e4       ?take_focus@Fl_Widget@@QAEHXZ 004041e4 f   fltkd:Fl_Widget.obj
 0001:0000323e       ??1Fl_Widget@@UAE@XZ       0040423e f   fltkd:Fl_Widget.obj
 0001:00003268       ?activate@Fl_Widget@@QAEXXZ 00404268 f   fltkd:Fl_Widget.obj
 0001:00003352       ?deactivate@Fl_Widget@@QAEXXZ 00404352 f   fltkd:Fl_Widget.obj
 0001:000033a4       ?active_r@Fl_Widget@@QBEHXZ 004043a4 f   fltkd:Fl_Widget.obj
 0001:000033e1       ?show@Fl_Widget@@QAEXXZ    004043e1 f   fltkd:Fl_Widget.obj
 0001:00003445       ?hide@Fl_Widget@@QAEXXZ    00404445 f   fltkd:Fl_Widget.obj
 0001:000034d9       ?visible_r@Fl_Widget@@QBEHXZ 004044d9 f   fltkd:Fl_Widget.obj
 0001:00003516       ?contains@Fl_Widget@@QBEHPBV1@@Z 00404516 f   fltkd:Fl_Widget.obj
 0001:00003550       ??_GFl_Widget@@UAEPAXI@Z   00404550 f i fltkd:Fl_Widget.obj
 0001:00003550       ??_EFl_Widget@@UAEPAXI@Z   00404550 f i fltkd:Fl_Widget.obj
 0001:00003580       ?clear_flag@Fl_Widget@@IAEXH@Z 00404580 f i fltkd:Fl_Widget.obj
 0001:000035a0       ?align@Fl_Widget@@QBE?AW4Fl_Align@@XZ 004045a0 f i fltkd:Fl_Widget.obj
 0001:000035c0       ?box@Fl_Widget@@QBE?AW4Fl_Boxtype@@XZ 004045c0 f i fltkd:Fl_Widget.obj
 0001:000035e0       ?active@Fl_Widget@@QBEHXZ  004045e0 f i fltkd:Fl_Widget.obj
 0001:00003600       ?takesevents@Fl_Widget@@QBEHXZ 00404600 f i fltkd:Fl_Widget.obj
 0001:00003620       ?inside@Fl_Widget@@QBEHPBV1@@Z 00404620 f i fltkd:Fl_Widget.obj
 0001:00003650       ?current@Fl_Group@@SAPAV1@XZ 00404650 f i fltkd:Fl_Widget.obj
 0001:00003660       ?add@Fl_Group@@QAEXPAVFl_Widget@@@Z 00404660 f i fltkd:Fl_Widget.obj
 0001:00003680       ?value@Fl_Menu_@@QAEHPBUFl_Menu_Item@@@Z 00404680 f   fltkd:Fl_Menu_.obj
 0001:000036b2       ?picked@Fl_Menu_@@QAEPBUFl_Menu_Item@@PBU2@@Z 004046b2 f   fltkd:Fl_Menu_.obj
 0001:000037a8       ?setonly@Fl_Menu_Item@@QAEXXZ 004047a8 f   fltkd:Fl_Menu_.obj
 0001:00003848       ??0Fl_Menu_@@QAE@HHHHPBD@Z 00404848 f   fltkd:Fl_Menu_.obj
 0001:00003919       ?size@Fl_Menu_@@QBEHXZ     00404919 f   fltkd:Fl_Menu_.obj
 0001:0000393c       ?menu@Fl_Menu_@@QAEXPBUFl_Menu_Item@@@Z 0040493c f   fltkd:Fl_Menu_.obj
 0001:00003963       ?copy@Fl_Menu_@@QAEXPBUFl_Menu_Item@@PAX@Z 00404963 f   fltkd:Fl_Menu_.obj
 0001:000039f2       ??1Fl_Menu_@@UAE@XZ        004049f2 f   fltkd:Fl_Menu_.obj
 0001:00003a43       ?clear@Fl_Menu_@@QAEXXZ    00404a43 f   fltkd:Fl_Menu_.obj
 0001:00003b00       ??_GFl_Menu_@@UAEPAXI@Z    00404b00 f i fltkd:Fl_Menu_.obj
 0001:00003b00       ??_EFl_Menu_@@UAEPAXI@Z    00404b00 f i fltkd:Fl_Menu_.obj
 0001:00003b30       ?selection_color@Fl_Widget@@QAEXE@Z 00404b30 f i fltkd:Fl_Menu_.obj
 0001:00003b50       ?when@Fl_Widget@@QBE?AW4Fl_When@@XZ 00404b50 f i fltkd:Fl_Menu_.obj
 0001:00003b70       ?changed@Fl_Widget@@QBEHXZ 00404b70 f i fltkd:Fl_Menu_.obj
 0001:00003b90       ?set_changed@Fl_Widget@@QAEXXZ 00404b90 f i fltkd:Fl_Menu_.obj
 0001:00003bb0       ?clear_changed@Fl_Widget@@QAEXXZ 00404bb0 f i fltkd:Fl_Menu_.obj
 0001:00003bd0       ?radio@Fl_Menu_Item@@QBEHXZ 00404bd0 f i fltkd:Fl_Menu_.obj
 0001:00003bf0       ?value@Fl_Menu_Item@@QBEHXZ 00404bf0 f i fltkd:Fl_Menu_.obj
 0001:00003c10       ?clear@Fl_Menu_Item@@QAEXXZ 00404c10 f i fltkd:Fl_Menu_.obj
 0001:00003c30       ?do_callback@Fl_Menu_Item@@QBEXPAVFl_Widget@@@Z 00404c30 f i fltkd:Fl_Menu_.obj
 0001:00003c60       ?textfont@Fl_Menu_@@QAEXE@Z 00404c60 f i fltkd:Fl_Menu_.obj
 0001:00003c80       ?textsize@Fl_Menu_@@QAEXE@Z 00404c80 f i fltkd:Fl_Menu_.obj
 0001:00003ca0       ?textcolor@Fl_Menu_@@QAEXE@Z 00404ca0 f i fltkd:Fl_Menu_.obj
 0001:00003cc0       ?down_box@Fl_Menu_@@QAEXW4Fl_Boxtype@@@Z 00404cc0 f i fltkd:Fl_Menu_.obj
 0001:00003ce0       ?draw@Fl_Menu_Bar@@MAEXXZ  00404ce0 f   fltkd:Fl_Menu_Bar.obj
 0001:00003d87       ?handle@Fl_Menu_Bar@@UAEHH@Z 00404d87 f   fltkd:Fl_Menu_Bar.obj
 0001:00003eb0       ?submenu@Fl_Menu_Item@@QBEHXZ 00404eb0 f i fltkd:Fl_Menu_Bar.obj
 0001:00003ed0       ?test_shortcut@Fl_Menu_@@QAEPBUFl_Menu_Item@@XZ 00404ed0 f i fltkd:Fl_Menu_Bar.obj
 0001:00003f00       ??0Fl_Valuator@@IAE@HHHHPBD@Z 00404f00 f   fltkd:Fl_Valuator.obj
 0001:00003fc4       ?step@Fl_Valuator@@QAEXN@Z 00404fc4 f   fltkd:Fl_Valuator.obj
 0001:0000406d       ?precision@Fl_Valuator@@QAEXH@Z 0040506d f   fltkd:Fl_Valuator.obj
 0001:000040b6       ?value_damage@Fl_Valuator@@MAEXXZ 004050b6 f   fltkd:Fl_Valuator.obj
 0001:000040cb       ?value@Fl_Valuator@@QAEHN@Z 004050cb f   fltkd:Fl_Valuator.obj
 0001:00004113       ?softclamp@Fl_Valuator@@IAENN@Z 00405113 f   fltkd:Fl_Valuator.obj
 0001:0000422d       ?handle_drag@Fl_Valuator@@IAEXN@Z 0040522d f   fltkd:Fl_Valuator.obj
 0001:00004285       ?handle_release@Fl_Valuator@@IAEXXZ 00405285 f   fltkd:Fl_Valuator.obj
 0001:000042d1       ?round@Fl_Valuator@@QAENN@Z 004052d1 f   fltkd:Fl_Valuator.obj
 0001:0000431f       ?clamp@Fl_Valuator@@QAENN@Z 0040531f f   fltkd:Fl_Valuator.obj
 0001:000043d7       ?increment@Fl_Valuator@@QAENNH@Z 004053d7 f   fltkd:Fl_Valuator.obj
 0001:0000445a       ?format@Fl_Valuator@@UAEHPAD@Z 0040545a f   fltkd:Fl_Valuator.obj
 0001:00004510       ??_EFl_Box@@UAEPAXI@Z      00405510 f i fltkd:fl_ask.obj
 0001:00004510       ??_GFl_Valuator@@UAEPAXI@Z 00405510 f i fltkd:Fl_Valuator.obj
 0001:00004510       ??_GFl_Box@@UAEPAXI@Z      00405510 f i fltkd:fl_ask.obj
 0001:00004510       ??_GFl_Button@@UAEPAXI@Z   00405510 f i fltkd:Fl_Button.obj
 0001:00004510       ??_EFl_Valuator@@UAEPAXI@Z 00405510 f i fltkd:Fl_Valuator.obj
 0001:00004510       ??_EFl_Button@@UAEPAXI@Z   00405510 f i fltkd:Fl_Button.obj
 0001:00004540       ??1Fl_Valuator@@UAE@XZ     00405540 f i fltkd:Fl_Valuator.obj
 0001:00004540       ??1Fl_Button@@UAE@XZ       00405540 f i fltkd:fl_ask.obj
 0001:00004540       ??1Fl_Box@@UAE@XZ          00405540 f i fltkd:fl_ask.obj
 0001:00004560       ?rint@@YANN@Z              00405560 f i fltkd:Fl_Valuator.obj
 0001:00004580       ??0Fl_Value_Slider@@QAE@HHHHPBD@Z 00405580 f   fltkd:Fl_Value_Slider.obj
 0001:00004608       ?draw@Fl_Value_Slider@@UAEXXZ 00405608 f   fltkd:Fl_Value_Slider.obj
 0001:000048c6       ?handle@Fl_Value_Slider@@UAEHH@Z 004058c6 f   fltkd:Fl_Value_Slider.obj
 0001:000049a0       ?color@Fl_Widget@@QBE?AW4Fl_Color@@XZ 004059a0 f i fltkd:Fl_Value_Slider.obj
 0001:000049c0       ?horizontal@Fl_Valuator@@IBEHXZ 004059c0 f i fltkd:Fl_Value_Slider.obj
 0001:000049e0       ?step@Fl_Valuator@@QAEXNH@Z 004059e0 f i fltkd:Fl_Value_Slider.obj
 0001:00004a10       ?textfont@Fl_Value_Slider@@QBE?AW4Fl_Font@@XZ 00405a10 f i fltkd:Fl_Value_Slider.obj
 0001:00004a30       ?textsize@Fl_Value_Slider@@QBEEXZ 00405a30 f i fltkd:Fl_Value_Slider.obj
 0001:00004a50       ?textcolor@Fl_Value_Slider@@QBE?AW4Fl_Color@@XZ 00405a50 f i fltkd:Fl_Value_Slider.obj
 0001:00004a70       ?value@Fl_Button@@QAEHH@Z  00405a70 f   fltkd:Fl_Button.obj
 0001:00004ac0       ?setonly@Fl_Button@@QAEXXZ 00405ac0 f   fltkd:Fl_Button.obj
 0001:00004b3f       ?draw@Fl_Button@@MAEXXZ    00405b3f f   fltkd:Fl_Button.obj
 0001:00004bf7       ?handle@Fl_Button@@UAEHH@Z 00405bf7 f   fltkd:Fl_Button.obj
 0001:00004e83       ??0Fl_Button@@QAE@HHHHPBD@Z 00405e83 f   fltkd:Fl_Button.obj
 0001:00004f20       ?down@@YA?AW4Fl_Boxtype@@W41@@Z 00405f20 f i fltkd:Fl_Button.obj
 0001:00004f30       ?selection_color@Fl_Widget@@QBE?AW4Fl_Color@@XZ 00405f30 f i fltkd:Fl_Button.obj
 0001:00004f50       ?value@Fl_Button@@QBEDXZ   00405f50 f i fltkd:Fl_Button.obj
 0001:00004f70       ?down_box@Fl_Button@@QBE?AW4Fl_Boxtype@@XZ 00405f70 f i fltkd:Fl_Button.obj
 0001:00004f90       ?down_box@Fl_Button@@QAEXW4Fl_Boxtype@@@Z 00405f90 f i fltkd:Fl_Button.obj
 0001:00004fb0       ?children@Fl_Group@@QBEHXZ 00405fb0 f i fltkd:Fl_Button.obj
 0001:00004fd5       ?fl_file_chooser_callback@@YAXP6AXPBD@Z@Z 00405fd5 f   fltkd:fl_file_chooser.obj
 0001:00004ffb       ?checkdir@FCB@@ABEHPBUdirent@@PAD@Z 00405ffb f   fltkd:fl_file_chooser.obj
 0001:000050cb       ?item_first@FCB@@EBEPAXXZ  004060cb f   fltkd:fl_file_chooser.obj
 0001:000050df       ?item_next@FCB@@EBEPAXPAX@Z 004060df f   fltkd:fl_file_chooser.obj
 0001:00005107       ?item_prev@FCB@@EBEPAXPAX@Z 00406107 f   fltkd:fl_file_chooser.obj
 0001:0000512c       ?incr_height@FCB@@EBEHXZ   0040612c f   fltkd:fl_file_chooser.obj
 0001:00005147       ?item_height@FCB@@ABEHPBUdirent@@H@Z 00406147 f   fltkd:fl_file_chooser.obj
 0001:00005364       ?item_height@FCB@@EBEHPAX@Z 00406364 f   fltkd:fl_file_chooser.obj
 0001:00005381       ?item_quick_height@FCB@@EBEHPAX@Z 00406381 f   fltkd:fl_file_chooser.obj
 0001:0000539e       ?item_draw@FCB@@EBEXPAXHHHH@Z 0040639e f   fltkd:fl_file_chooser.obj
 0001:00005468       ?item_width@FCB@@ABEHPBUdirent@@@Z 00406468 f   fltkd:fl_file_chooser.obj
 0001:000054d4       ?item_width@FCB@@EBEHPAX@Z 004064d4 f   fltkd:fl_file_chooser.obj
 0001:000054ef       ?get@FCB@@QAEHPAD@Z        004064ef f   fltkd:fl_file_chooser.obj
 0001:000056bb       ?set@FCB@@QAEXPBD@Z        004066bb f   fltkd:fl_file_chooser.obj
 0001:00005d89       ?draw@FCB@@EAEXXZ          00406d89 f   fltkd:fl_file_chooser.obj
 0001:00005e7b       ?clear_prev@FCB@@AAEXXZ    00406e7b f   fltkd:fl_file_chooser.obj
 0001:00005efa       ?clear@FCB@@QAEXXZ         00406efa f   fltkd:fl_file_chooser.obj
 0001:00005f98       ?handle@FCW@@UAEHH@Z       00406f98 f   fltkd:fl_file_chooser.obj
 0001:00006059       ??0FCW@@QAE@XZ             00407059 f   fltkd:fl_file_chooser.obj
 0001:00006ba2       ?fl_file_chooser@@YAPADPBD00@Z 00407ba2 f   fltkd:fl_file_chooser.obj
 0001:00006ef0       ??0FCB@@QAE@HHHH@Z         00407ef0 f i fltkd:fl_file_chooser.obj
 0001:00006fc0       ??_GFCB@@UAEPAXI@Z         00407fc0 f i fltkd:fl_file_chooser.obj
 0001:00006fc0       ??_EFCB@@UAEPAXI@Z         00407fc0 f i fltkd:fl_file_chooser.obj
 0001:00006ff0       ??1Fl_Browser_@@UAE@XZ     00407ff0 f i fltkd:fl_file_chooser.obj
 0001:00007050       ??1FCB@@UAE@XZ             00408050 f i fltkd:fl_file_chooser.obj
 0001:00007070       ??1Fl_Value_Slider@@UAE@XZ 00408070 f i fltkd:Fl_Value_Slider.obj
 0001:00007070       ??1Fl_Scrollbar@@UAE@XZ    00408070 f i fltkd:fl_file_chooser.obj
 0001:00007090       ?callback@Fl_Widget@@QAEXP6AXPAV1@PAX@Z1@Z 00408090 f i fltkd:fl_file_chooser.obj
 0001:000070b0       ?begin@Fl_Group@@QAEXXZ    004080b0 f i fltkd:fl_file_chooser.obj
 0001:000070d0       ?event_clicks@Fl@@SAHXZ    004080d0 f i fltkd:fl_file_chooser.obj
 0001:000070e0       ?event_button@Fl@@SAHXZ    004080e0 f i fltkd:fl_file_chooser.obj
 0001:000070f0       ?selection@Fl_Browser_@@IBEPAXXZ 004080f0 f i fltkd:fl_file_chooser.obj
 0001:00007110       ?textfont@Fl_Browser_@@QBE?AW4Fl_Font@@XZ 00408110 f i fltkd:fl_file_chooser.obj
 0001:00007130       ?textsize@Fl_Browser_@@QBEEXZ 00408130 f i fltkd:fl_file_chooser.obj
 0001:00007150       ?textcolor@Fl_Browser_@@QBE?AW4Fl_Color@@XZ 00408150 f i fltkd:fl_file_chooser.obj
 0001:00007170       ??_EFCW@@UAEPAXI@Z         00408170 f i fltkd:fl_file_chooser.obj
 0001:00007170       ??_GFCW@@UAEPAXI@Z         00408170 f i fltkd:fl_file_chooser.obj
 0001:000071a0       ??1Fl_Input@@UAE@XZ        004081a0 f i fltkd:fl_file_chooser.obj
 0001:000071c0       ??1FCW@@UAE@XZ             004081c0 f i fltkd:fl_file_chooser.obj
 0001:00007220       ?size@Fl_Input_@@QBEHXZ    00408220 f i fltkd:fl_file_chooser.obj
 0001:00007220       ?resizable@Fl_Group@@QBEPAVFl_Widget@@XZ 00408220 f i fltkd:Fl_Group.obj
 0001:00007240       ?position@Fl_Input_@@QAEHH@Z 00408240 f i fltkd:fl_file_chooser.obj
 0001:00007260       ?array@Fl_Group@@QBEPBQAVFl_Widget@@XZ 00408260 f   fltkd:Fl_Group.obj
 0001:0000728d       ?find@Fl_Group@@QBEHPBVFl_Widget@@@Z 0040828d f   fltkd:Fl_Group.obj
 0001:000072e0       ?handle@Fl_Group@@UAEHH@Z  004082e0 f   fltkd:Fl_Group.obj
 0001:000078d1       ?navigation@Fl_Group@@AAEHH@Z 004088d1 f   fltkd:Fl_Group.obj
 0001:00007a79       ??0Fl_Group@@QAE@HHHHPBD@Z 00408a79 f   fltkd:Fl_Group.obj
 0001:00007b1e       ?clear@Fl_Group@@QAEXXZ    00408b1e f   fltkd:Fl_Group.obj
 0001:00007bdf       ??1Fl_Group@@UAE@XZ        00408bdf f   fltkd:Fl_Group.obj
 0001:00007c30       ?insert@Fl_Group@@QAEXAAVFl_Widget@@H@Z 00408c30 f   fltkd:Fl_Group.obj
 0001:00007da8       ?add@Fl_Group@@QAEXAAVFl_Widget@@@Z 00408da8 f   fltkd:Fl_Group.obj
 0001:00007dc8       ?remove@Fl_Group@@QAEXAAVFl_Widget@@@Z 00408dc8 f   fltkd:Fl_Group.obj
 0001:00007ea1       ?init_sizes@Fl_Group@@QAEXXZ 00408ea1 f   fltkd:Fl_Group.obj
 0001:00007ecd       ?sizes@Fl_Group@@IAEPAFXZ  00408ecd f   fltkd:Fl_Group.obj
 0001:00008130       ?resize@Fl_Group@@UAEXHHHH@Z 00409130 f   fltkd:Fl_Group.obj
 0001:000084e7       ?draw@Fl_Group@@MAEXXZ     004094e7 f   fltkd:Fl_Group.obj
 0001:000085a0       ?update_child@Fl_Group@@IBEXAAVFl_Widget@@@Z 004095a0 f   fltkd:Fl_Group.obj
 0001:00008623       ?draw_child@Fl_Group@@IBEXAAVFl_Widget@@@Z 00409623 f   fltkd:Fl_Group.obj
 0001:000086a2       ?draw_outside_label@Fl_Group@@IBEXABVFl_Widget@@@Z 004096a2 f   fltkd:Fl_Group.obj
 0001:00008810       ?event_state@Fl@@SAHH@Z    00409810 f i fltkd:Fl_Group.obj
 0001:00008820       ??_GFl_Group@@UAEPAXI@Z    00409820 f i fltkd:Fl_Group.obj
 0001:00008820       ??_EFl_Group@@UAEPAXI@Z    00409820 f i fltkd:Fl_Group.obj
 0001:00008850       ?find@Fl_Group@@QBEHABVFl_Widget@@@Z 00409850 f i fltkd:Fl_Group.obj
 0001:00008870       ?add_fd@Fl@@SAXHHP6AXHPAX@Z0@Z 00409870 f   fltkd:Fl_x.obj
 0001:000089c9       ?add_fd@Fl@@SAXHP6AXHPAX@Z0@Z 004099c9 f   fltkd:Fl_x.obj
 0001:000089e4       ?remove_fd@Fl@@SAXHH@Z     004099e4 f   fltkd:Fl_x.obj
 0001:00008c25       ?remove_fd@Fl@@SAXH@Z      00409c25 f   fltkd:Fl_x.obj
 0001:00008c38       ?fl_wait@@YAHN@Z           00409c38 f   fltkd:Fl_x.obj
 0001:00008eee       ?fl_ready@@YAHXZ           00409eee f   fltkd:Fl_x.obj
 0001:00008f81       ?x@Fl@@SAHXZ               00409f81 f   fltkd:Fl_x.obj
 0001:00008f9e       ?y@Fl@@SAHXZ               00409f9e f   fltkd:Fl_x.obj
 0001:00008fbb       ?h@Fl@@SAHXZ               00409fbb f   fltkd:Fl_x.obj
 0001:00008fdb       ?w@Fl@@SAHXZ               00409fdb f   fltkd:Fl_x.obj
 0001:00008ffb       ?get_mouse@Fl@@SAXAAH0@Z   00409ffb f   fltkd:Fl_x.obj
 0001:0000901f       ?fake_X_wm@Fl_X@@SAHPBVFl_Window@@AAH1111@Z 0040a01f f   fltkd:Fl_x.obj
 0001:0000925e       ?resize@Fl_Window@@UAEXHHHH@Z 0040a25e f   fltkd:Fl_x.obj
 0001:000093f2       ?make@Fl_X@@SAPAV1@PAVFl_Window@@@Z 0040a3f2 f   fltkd:Fl_x.obj
 0001:0000a81c       ?size_range_@Fl_Window@@AAEXXZ 0040b81c f   fltkd:Fl_x.obj
 0001:0000a82e       ?set_minmax@Fl_X@@QAEXPAUtagMINMAXINFO@@@Z 0040b82e f   fltkd:Fl_x.obj
 0001:0000a907       ?filename_name@@YAPBDPBD@Z 0040b907 f   fltkd:Fl_x.obj
 0001:0000a975       ?label@Fl_Window@@QAEXPBD0@Z 0040b975 f   fltkd:Fl_x.obj
 0001:0000a9cf       ?show@Fl_Window@@UAEXXZ    0040b9cf f   fltkd:Fl_x.obj
 0001:0000aa2e       ?fl_GetDC@@YAPAUHDC__@@PAUHWND__@@@Z 0040ba2e f   fltkd:Fl_x.obj
 0001:0000aa9c       ?make_current@Fl_Window@@QAEXXZ 0040ba9c f   fltkd:Fl_x.obj
 0001:0000aae0       ?border@Fl_Window@@QBEHXZ  0040bae0 f i fltkd:Fl_x.obj
 0001:0000ab00       ?size_range@Fl_Window@@QAEXHHHHHHH@Z 0040bb00 f i fltkd:Fl_x.obj
 0001:0000ab60       ?icon@Fl_Window@@QBEPBXXZ  0040bb60 f i fltkd:Fl_x.obj
 0001:0000ab80       ?icon@Fl_Window@@QAEXPBX@Z 0040bb80 f i fltkd:Fl_x.obj
 0001:0000aba0       ?setwindow@Fl_X@@QAEXPAVFl_Window@@@Z 0040bba0 f i fltkd:Fl_x.obj
 0001:0000abc0       ?compose@Fl@@SAHAAH@Z      0040bbc0 f   fltkd:Fl_compose.obj
 0001:0000add0       ?fl_rect@@YAXHHHH@Z        0040bdd0 f   fltkd:fl_rect.obj
 0001:0000ae6d       ?fl_rectf@@YAXHHHH@Z       0040be6d f   fltkd:fl_rect.obj
 0001:0000aeba       ?fl_xyline@@YAXHHH@Z       0040beba f   fltkd:fl_rect.obj
 0001:0000aeee       ?fl_xyline@@YAXHHHH@Z      0040beee f   fltkd:fl_rect.obj
 0001:0000af50       ?fl_xyline@@YAXHHHHH@Z     0040bf50 f   fltkd:fl_rect.obj
 0001:0000afc7       ?fl_yxline@@YAXHHH@Z       0040bfc7 f   fltkd:fl_rect.obj
 0001:0000b014       ?fl_yxline@@YAXHHHH@Z      0040c014 f   fltkd:fl_rect.obj
 0001:0000b076       ?fl_yxline@@YAXHHHHH@Z     0040c076 f   fltkd:fl_rect.obj
 0001:0000b0ed       ?fl_line@@YAXHHHH@Z        0040c0ed f   fltkd:fl_rect.obj
 0001:0000b139       ?fl_line@@YAXHHHHHH@Z      0040c139 f   fltkd:fl_rect.obj
 0001:0000b19a       ?fl_loop@@YAXHHHHHH@Z      0040c19a f   fltkd:fl_rect.obj
 0001:0000b1f5       ?fl_loop@@YAXHHHHHHHH@Z    0040c1f5 f   fltkd:fl_rect.obj
 0001:0000b265       ?fl_polygon@@YAXHHHHHH@Z   0040c265 f   fltkd:fl_rect.obj
 0001:0000b2b8       ?fl_polygon@@YAXHHHHHHHH@Z 0040c2b8 f   fltkd:fl_rect.obj
 0001:0000b318       ?fl_point@@YAXHH@Z         0040c318 f   fltkd:fl_rect.obj
 0001:0000b338       ?fl_restore_clip@@YAXXZ    0040c338 f   fltkd:fl_rect.obj
 0001:0000b36e       ?fl_clip_region@@YAXPAUHRGN__@@@Z 0040c36e f   fltkd:fl_rect.obj
 0001:0000b3ab       ?fl_clip@@YAXHHHH@Z        0040c3ab f   fltkd:fl_rect.obj
 0001:0000b444       ?fl_push_no_clip@@YAXXZ    0040c444 f   fltkd:fl_rect.obj
 0001:0000b475       ?fl_pop_clip@@YAXXZ        0040c475 f   fltkd:fl_rect.obj
 0001:0000b4bb       ?fl_not_clipped@@YAHHHHH@Z 0040c4bb f   fltkd:fl_rect.obj
 0001:0000b548       ?fl_clip_box@@YAHHHHHAAH000@Z 0040c548 f   fltkd:fl_rect.obj
 0001:0000b660       ?current@Fl_Window@@SAPAV1@XZ 0040c660 f i fltkd:fl_rect.obj
 0001:0000b670       ?fl_RGB@@YAKXZ             0040c670 f i fltkd:fl_rect.obj
 0001:0000b680       ?hotspot@Fl_Window@@QAEXHHH@Z 0040c680 f   fltkd:Fl_Window_hotspot.obj
 0001:0000b6c1       ?hotspot@Fl_Window@@QAEXPBVFl_Widget@@H@Z 0040c6c1 f   fltkd:Fl_Window_hotspot.obj
 0001:0000b740       _vsnprintf                 0040c740 f   fltkd:vsnprintf.obj
 0001:0000ba5b       _snprintf                  0040ca5b f   fltkd:vsnprintf.obj
 0001:0000ba90       ?draw@Fl_Input@@UAEXXZ     0040ca90 f   fltkd:Fl_Input.obj
 0001:0000bb5d       ?shift_position@Fl_Input@@AAEHH@Z 0040cb5d f   fltkd:Fl_Input.obj
 0001:0000bba0       ?shift_up_down_position@Fl_Input@@AAEHH@Z 0040cba0 f   fltkd:Fl_Input.obj
 0001:0000bbc7       ?handle_key@Fl_Input@@AAEHXZ 0040cbc7 f   fltkd:Fl_Input.obj
 0001:0000c44f       ?handle@Fl_Input@@UAEHH@Z  0040d44f f   fltkd:Fl_Input.obj
 0001:0000c659       ??0Fl_Input@@QAE@HHHHPBD@Z 0040d659 f   fltkd:Fl_Input.obj
 0001:0000c690       ?event_state@Fl@@SAHXZ     0040d690 f i fltkd:Fl_Input.obj
 0001:0000c6a0       ?event_length@Fl@@SAHXZ    0040d6a0 f i fltkd:Fl_Input.obj
 0001:0000c6b0       ?event_is_click@Fl@@SAHXZ  0040d6b0 f i fltkd:Fl_Input.obj
 0001:0000c6c0       ?event_is_click@Fl@@SAXH@Z 0040d6c0 f i fltkd:Fl_Input.obj
 0001:0000c6d0       ??_EFl_Input@@UAEPAXI@Z    0040d6d0 f i fltkd:Fl_Input.obj
 0001:0000c6d0       ??_GFl_Input@@UAEPAXI@Z    0040d6d0 f i fltkd:Fl_Input.obj
 0001:0000c700       ?index@Fl_Input_@@QBEDH@Z  0040d700 f i fltkd:Fl_Input.obj
 0001:0000c720       ?position@Fl_Input_@@QBEHXZ 0040d720 f i fltkd:Fl_Input.obj
 0001:0000c740       ?mark@Fl_Input_@@QBEHXZ    0040d740 f i fltkd:Fl_Input.obj
 0001:0000c760       ?cut@Fl_Input_@@QAEHXZ     0040d760 f i fltkd:Fl_Input.obj
 0001:0000c790       ?cut@Fl_Input_@@QAEHH@Z    0040d790 f i fltkd:Fl_Input.obj
 0001:0000c7c0       ?cut@Fl_Input_@@QAEHHH@Z   0040d7c0 f i fltkd:Fl_Input.obj
 0001:0000c7f0       ?expand@Fl_Input_@@ABEPBDPBDPAD@Z 0040d7f0 f   fltkd:Fl_Input_.obj
 0001:0000c9f1       ?expandpos@Fl_Input_@@ABENPBD00PAH@Z 0040d9f1 f   fltkd:Fl_Input_.obj
 0001:0000cae3       ?minimal_update@Fl_Input_@@AAEXH@Z 0040dae3 f   fltkd:Fl_Input_.obj
 0001:0000cb4c       ?minimal_update@Fl_Input_@@AAEXHH@Z 0040db4c f   fltkd:Fl_Input_.obj
 0001:0000cb73       ?setfont@Fl_Input_@@ABEXXZ 0040db73 f   fltkd:Fl_Input_.obj
 0001:0000cb9d       ?drawtext@Fl_Input_@@IAEXHHHH@Z 0040db9d f   fltkd:Fl_Input_.obj
 0001:0000d5ef       ?word_end@Fl_Input_@@IBEHH@Z 0040e5ef f   fltkd:Fl_Input_.obj
 0001:0000d69d       ?word_start@Fl_Input_@@IBEHH@Z 0040e69d f   fltkd:Fl_Input_.obj
 0001:0000d6f0       ?line_end@Fl_Input_@@IBEHH@Z 0040e6f0 f   fltkd:Fl_Input_.obj
 0001:0000d748       ?line_start@Fl_Input_@@IBEHH@Z 0040e748 f   fltkd:Fl_Input_.obj
 0001:0000d79e       ?handle_mouse@Fl_Input_@@IAEXHHHHH@Z 0040e79e f   fltkd:Fl_Input_.obj
 0001:0000dcd8       ?position@Fl_Input_@@QAEHHH@Z 0040ecd8 f   fltkd:Fl_Input_.obj
 0001:0000de0d       ?up_down_position@Fl_Input_@@IAEHHH@Z 0040ee0d f   fltkd:Fl_Input_.obj
 0001:0000df5d       ?copy@Fl_Input_@@QAEHXZ    0040ef5d f   fltkd:Fl_Input_.obj
 0001:0000e013       ?replace@Fl_Input_@@QAEHHHPBDH@Z 0040f013 f   fltkd:Fl_Input_.obj
 0001:0000e494       ?undo@Fl_Input_@@QAEHXZ    0040f494 f   fltkd:Fl_Input_.obj
 0001:0000e646       ?copy_cuts@Fl_Input_@@QAEHXZ 0040f646 f   fltkd:Fl_Input_.obj
 0001:0000e67c       ?maybe_do_callback@Fl_Input_@@IAEXXZ 0040f67c f   fltkd:Fl_Input_.obj
 0001:0000e6b2       ?handletext@Fl_Input_@@IAEHHHHHH@Z 0040f6b2 f   fltkd:Fl_Input_.obj
 0001:0000e8ad       ??0Fl_Input_@@QAE@HHHHPBD@Z 0040f8ad f   fltkd:Fl_Input_.obj
 0001:0000e9aa       ?put_in_buffer@Fl_Input_@@AAEXH@Z 0040f9aa f   fltkd:Fl_Input_.obj
 0001:0000eb1e       ?static_value@Fl_Input_@@QAEHPBDH@Z 0040fb1e f   fltkd:Fl_Input_.obj
 0001:0000ec7a       ?static_value@Fl_Input_@@QAEHPBD@Z 0040fc7a f   fltkd:Fl_Input_.obj
 0001:0000ecb7       ?value@Fl_Input_@@QAEHPBDH@Z 0040fcb7 f   fltkd:Fl_Input_.obj
 0001:0000ecee       ?value@Fl_Input_@@QAEHPBD@Z 0040fcee f   fltkd:Fl_Input_.obj
 0001:0000ed2b       ?resize@Fl_Input_@@UAEXHHHH@Z 0040fd2b f   fltkd:Fl_Input_.obj
 0001:0000ed7e       ??1Fl_Input_@@UAE@XZ       0040fd7e f   fltkd:Fl_Input_.obj
 0001:0000edd0       ?event_x@Fl@@SAHXZ         0040fdd0 f i fltkd:Fl_Input_.obj
 0001:0000ede0       ?event_y@Fl@@SAHXZ         0040fde0 f i fltkd:Fl_Input_.obj
 0001:0000edf0       ?event_clicks@Fl@@SAXH@Z   0040fdf0 f i fltkd:Fl_Input_.obj
 0001:0000ee00       ?textfont@Fl_Input_@@QBE?AW4Fl_Font@@XZ 0040fe00 f i fltkd:Fl_Input_.obj
 0001:0000ee20       ?textsize@Fl_Input_@@QBEEXZ 0040fe20 f i fltkd:Fl_Input_.obj
 0001:0000ee40       ?textcolor@Fl_Input_@@QBE?AW4Fl_Color@@XZ 0040fe40 f i fltkd:Fl_Input_.obj
 0001:0000ee60       ?cursor_color@Fl_Input_@@QBE?AW4Fl_Color@@XZ 0040fe60 f i fltkd:Fl_Input_.obj
 0001:0000ee80       ?color@Fl_Widget@@QAEXEE@Z 0040fe80 f i fltkd:Fl_Input_.obj
 0001:0000eea0       ??_EFl_Input_@@UAEPAXI@Z   0040fea0 f i fltkd:Fl_Input_.obj
 0001:0000eea0       ??_GFl_Input_@@UAEPAXI@Z   0040fea0 f i fltkd:Fl_Input_.obj
 0001:0000eed0       ?draw@Fl_Box@@MAEXXZ       0040fed0 f   fltkd:Fl_Box.obj
 0001:0000eef0       ?test_shortcut@Fl@@SAHH@Z  0040fef0 f   fltkd:fl_shortcut.obj
 0001:0000efba       ?fl_shortcut_label@@YAPBDH@Z 0040ffba f   fltkd:fl_shortcut.obj
 0001:0000f1e6       ?fl_old_shortcut@@YAHPBD@Z 004101e6 f   fltkd:fl_shortcut.obj
 0001:0000f299       ?test_shortcut@Fl_Widget@@SAHPBD@Z 00410299 f   fltkd:fl_shortcut.obj
 0001:0000f31a       ?test_shortcut@Fl_Widget@@QAEHXZ 0041031a f   fltkd:fl_shortcut.obj
 0001:0000f350       ?fl_return_arrow@@YAHHHHH@Z 00410350 f   fltkd:Fl_Return_Button.obj
 0001:0000f4c0       ?draw@Fl_Return_Button@@MAEXXZ 004104c0 f   fltkd:Fl_Return_Button.obj
 0001:0000f60a       ?handle@Fl_Return_Button@@UAEHH@Z 0041060a f   fltkd:Fl_Return_Button.obj
 0001:0000f650       ?fl_gray_ramp@@YA?AW4Fl_Color@@H@Z 00410650 f i fltkd:Fl_Return_Button.obj
 0001:0000f660       ?find@Fl_Gl_Choice@@SAPAV1@HPBH@Z 00410660 f   fltkd:Fl_Gl_Choice.obj
 0001:0000f85d       ?fl_create_gl_context@@YAPAUHGLRC__@@PAVFl_Window@@PBVFl_Gl_Choice@@H@Z 0041085d f   fltkd:Fl_Gl_Choice.obj
 0001:0000f937       ?fl_set_gl_context@@YAXPAVFl_Window@@PAUHGLRC__@@@Z 00410937 f   fltkd:Fl_Gl_Choice.obj
 0001:0000f97d       ?fl_no_gl_context@@YAXXZ   0041097d f   fltkd:Fl_Gl_Choice.obj
 0001:0000f9a0       ?fl_delete_gl_context@@YAXPAUHGLRC__@@@Z 004109a0 f   fltkd:Fl_Gl_Choice.obj
 0001:0000fa90       ?get_color@Fl@@SAIW4Fl_Color@@@Z 00410a90 f   fltkd:fl_color.obj
 0001:0000fa9f       ?set_color@Fl@@SAXW4Fl_Color@@EEE@Z 00410a9f f   fltkd:fl_color.obj
 0001:0000fad8       ?get_color@Fl@@SAXW4Fl_Color@@AAE11@Z 00410ad8 f   fltkd:fl_color.obj
 0001:0000fb0e       ?fl_color_average@@YA?AW4Fl_Color@@W41@0M@Z 00410b0e f   fltkd:fl_color.obj
 0001:0000fc8a       ?inactive@@YA?AW4Fl_Color@@W41@@Z 00410c8a f   fltkd:fl_color.obj
 0001:0000fca2       ?contrast@@YA?AW4Fl_Color@@W41@0@Z 00410ca2 f   fltkd:fl_color.obj
 0001:0000fcf4       ?fl_color@@YAXW4Fl_Color@@@Z 00410cf4 f   fltkd:fl_color.obj
 0001:0000fdd4       ?fl_color@@YAXEEE@Z        00410dd4 f   fltkd:fl_color.obj
 0001:0000fefe       ?fl_brush@@YAPAUHBRUSH__@@XZ 00410efe f   fltkd:fl_color.obj
 0001:000100d3       ?free_color@Fl@@SAXW4Fl_Color@@H@Z 004110d3 f   fltkd:fl_color.obj
 0001:000100f4       ?set_color@Fl@@SAXW4Fl_Color@@I@Z 004110f4 f   fltkd:fl_color.obj
 0001:0001012a       ?fl_select_palette@@YAPAUHPALETTE__@@XZ 0041112a f   fltkd:fl_color.obj
 0001:00010280       ?fl_color_cube@@YA?AW4Fl_Color@@HHH@Z 00411280 f i fltkd:fl_color.obj
 0001:000102a0       ?size@Fl_Menu_Item@@QBEHXZ 004112a0 f   fltkd:Fl_Menu.obj
 0001:00010307       ?next@Fl_Menu_Item@@QBEPBU1@H@Z 00411307 f   fltkd:Fl_Menu.obj
 0001:00010390       ?measure@Fl_Menu_Item@@QBEHPAHPBVFl_Menu_@@@Z 00411390 f   fltkd:Fl_Menu.obj
 0001:00010496       ?draw@Fl_Menu_Item@@QBEXHHHHPBVFl_Menu_@@H@Z 00411496 f   fltkd:Fl_Menu.obj
 0001:00010959       ??0menutitle@@QAE@HHHHPBUFl_Menu_Item@@@Z 00411959 f   fltkd:Fl_Menu.obj
 0001:000109ee       ??0menuwindow@@QAE@PBUFl_Menu_Item@@HHHH00HH@Z 004119ee f   fltkd:Fl_Menu.obj
 0001:00010ed2       ??1menuwindow@@UAE@XZ      00411ed2 f   fltkd:Fl_Menu.obj
 0001:00010f4a       ?position@menuwindow@@QAEXHH@Z 00411f4a f   fltkd:Fl_Menu.obj
 0001:00010f9c       ?autoscroll@menuwindow@@QAEXH@Z 00411f9c f   fltkd:Fl_Menu.obj
 0001:0001103f       ?drawentry@menuwindow@@AAEXPBUFl_Menu_Item@@HH@Z 0041203f f   fltkd:Fl_Menu.obj
 0001:000112b5       ?draw@menutitle@@EAEXXZ    004122b5 f   fltkd:Fl_Menu.obj
 0001:000112e9       ?draw@menuwindow@@EAEXXZ   004122e9 f   fltkd:Fl_Menu.obj
 0001:000113fd       ?set_selected@menuwindow@@QAEXH@Z 004123fd f   fltkd:Fl_Menu.obj
 0001:00011428       ?find_selected@menuwindow@@QAEHHH@Z 00412428 f   fltkd:Fl_Menu.obj
 0001:0001156a       ?titlex@menuwindow@@QAEHH@Z 0041256a f   fltkd:Fl_Menu.obj
 0001:000115c8       ?handle@menuwindow@@UAEHH@Z 004125c8 f   fltkd:Fl_Menu.obj
 0001:00011c2e       ?pulldown@Fl_Menu_Item@@QBEPBU1@HHHHPBU1@PBVFl_Menu_@@0H@Z 00412c2e f   fltkd:Fl_Menu.obj
 0001:000125ef       ?popup@Fl_Menu_Item@@QBEPBU1@HHPBDPBU1@PBVFl_Menu_@@@Z 004135ef f   fltkd:Fl_Menu.obj
 0001:00012630       ?find_shortcut@Fl_Menu_Item@@QBEPBU1@PAH@Z 00413630 f   fltkd:Fl_Menu.obj
 0001:000126ba       ?test_shortcut@Fl_Menu_Item@@QBEPBU1@XZ 004136ba f   fltkd:Fl_Menu.obj
 0001:00012770       ??_Gmenutitle@@UAEPAXI@Z   00413770 f i fltkd:Fl_Menu.obj
 0001:00012770       ??_Emenutitle@@UAEPAXI@Z   00413770 f i fltkd:Fl_Menu.obj
 0001:000127a0       ??1menutitle@@UAE@XZ       004137a0 f i fltkd:Fl_Menu.obj
 0001:000127c0       ?w@Fl_Widget@@IAEXH@Z      004137c0 f i fltkd:Fl_Menu.obj
 0001:000127e0       ?h@Fl_Widget@@IAEXH@Z      004137e0 f i fltkd:Fl_Menu.obj
 0001:00012800       ??_Gmenuwindow@@UAEPAXI@Z  00413800 f i fltkd:Fl_Menu.obj
 0001:00012800       ??_Emenuwindow@@UAEPAXI@Z  00413800 f i fltkd:Fl_Menu.obj
 0001:00012830       ?clear_border@Fl_Window@@QAEXXZ 00413830 f i fltkd:Fl_Menu.obj
 0001:00012850       ?event_x_root@Fl@@SAHXZ    00413850 f i fltkd:Fl_Menu.obj
 0001:00012860       ?event_y_root@Fl@@SAHXZ    00413860 f i fltkd:Fl_Menu.obj
 0001:00012870       ?event_shift@Fl@@SAHXZ     00413870 f i fltkd:Fl_Menu.obj
 0001:00012880       ?clear_overlay@Fl_Menu_Window@@QAEXXZ 00413880 f i fltkd:Fl_Menu.obj
 0001:000128a0       ??0Fl_Menu_Window@@QAE@HHHHPBD@Z 004138a0 f i fltkd:Fl_Menu.obj
 0001:000128e0       ??0Fl_Single_Window@@QAE@HHHHPBD@Z 004138e0 f i fltkd:Fl_Menu.obj
 0001:00012920       ??_GFl_Single_Window@@UAEPAXI@Z 00413920 f i fltkd:Fl_Menu.obj
 0001:00012920       ??_EFl_Single_Window@@UAEPAXI@Z 00413920 f i fltkd:Fl_Menu.obj
 0001:00012950       ??1Fl_Single_Window@@UAE@XZ 00413950 f i fltkd:Fl_Menu.obj
 0001:00012970       ??_EFl_Menu_Window@@UAEPAXI@Z 00413970 f i fltkd:Fl_Menu.obj
 0001:00012970       ??_GFl_Menu_Window@@UAEPAXI@Z 00413970 f i fltkd:Fl_Menu.obj
 0001:000129a0       ?grab@Fl@@SAXAAVFl_Window@@@Z 004139a0 f i fltkd:Fl_Menu.obj
 0001:000129c0       ?release@Fl@@SAXXZ         004139c0 f i fltkd:Fl_Menu.obj
 0001:000129d0       ?visible@Fl_Menu_Item@@QBEHXZ 004139d0 f i fltkd:Fl_Menu.obj
 0001:000129f0       ?active@Fl_Menu_Item@@QBEHXZ 004139f0 f i fltkd:Fl_Menu.obj
 0001:00012a10       ?activevisible@Fl_Menu_Item@@QBEHXZ 00413a10 f i fltkd:Fl_Menu.obj
 0001:00012a30       ?textfont@Fl_Menu_@@QBE?AW4Fl_Font@@XZ 00413a30 f i fltkd:Fl_Menu.obj
 0001:00012a50       ?textsize@Fl_Menu_@@QBEEXZ 00413a50 f i fltkd:Fl_Menu.obj
 0001:00012a70       ?textcolor@Fl_Menu_@@QBE?AW4Fl_Color@@XZ 00413a70 f i fltkd:Fl_Menu.obj
 0001:00012a90       ?down_box@Fl_Menu_@@QBE?AW4Fl_Boxtype@@XZ 00413a90 f i fltkd:Fl_Menu.obj
 0001:00012ab0       ?fl_gray_ramp@@YAPAEXZ     00413ab0 f   fltkd:fl_boxtype.obj
 0001:00012ad7       ?fl_frame@@YAXPBDHHHH@Z    00413ad7 f   fltkd:fl_boxtype.obj
 0001:00012c7e       ?fl_frame2@@YAXPBDHHHH@Z   00413c7e f   fltkd:fl_boxtype.obj
 0001:00012e25       ?fl_no_box@@YAXHHHHW4Fl_Color@@@Z 00413e25 f   fltkd:fl_boxtype.obj
 0001:00012e2a       ?fl_thin_down_frame@@YAXHHHHW4Fl_Color@@@Z 00413e2a f   fltkd:fl_boxtype.obj
 0001:00012e4c       ?fl_thin_down_box@@YAXHHHHW4Fl_Color@@@Z 00413e4c f   fltkd:fl_boxtype.obj
 0001:00012e9d       ?fl_thin_up_frame@@YAXHHHHW4Fl_Color@@@Z 00413e9d f   fltkd:fl_boxtype.obj
 0001:00012ebf       ?fl_thin_up_box@@YAXHHHHW4Fl_Color@@@Z 00413ebf f   fltkd:fl_boxtype.obj
 0001:00012f10       ?fl_up_frame@@YAXHHHHW4Fl_Color@@@Z 00413f10 f   fltkd:fl_boxtype.obj
 0001:00012f32       ?fl_up_box@@YAXHHHHW4Fl_Color@@@Z 00413f32 f   fltkd:fl_boxtype.obj
 0001:00012f83       ?fl_down_frame@@YAXHHHHW4Fl_Color@@@Z 00413f83 f   fltkd:fl_boxtype.obj
 0001:00012fa5       ?fl_down_box@@YAXHHHHW4Fl_Color@@@Z 00413fa5 f   fltkd:fl_boxtype.obj
 0001:00012ff6       ?fl_engraved_frame@@YAXHHHHW4Fl_Color@@@Z 00413ff6 f   fltkd:fl_boxtype.obj
 0001:00013018       ?fl_engraved_box@@YAXHHHHW4Fl_Color@@@Z 00414018 f   fltkd:fl_boxtype.obj
 0001:00013069       ?fl_embossed_frame@@YAXHHHHW4Fl_Color@@@Z 00414069 f   fltkd:fl_boxtype.obj
 0001:0001308b       ?fl_embossed_box@@YAXHHHHW4Fl_Color@@@Z 0041408b f   fltkd:fl_boxtype.obj
 0001:000130dc       ?fl_rectbound@@YAXHHHHW4Fl_Color@@@Z 004140dc f   fltkd:fl_boxtype.obj
 0001:00013133       ?fl_rectf@@YAXHHHHW4Fl_Color@@@Z 00414133 f   fltkd:fl_boxtype.obj
 0001:0001315c       ?fl_border_frame@@YAXHHHHW4Fl_Color@@@Z 0041415c f   fltkd:fl_boxtype.obj
 0001:00013185       ?box_dx@Fl@@SAHW4Fl_Boxtype@@@Z 00414185 f   fltkd:fl_boxtype.obj
 0001:00013198       ?box_dy@Fl@@SAHW4Fl_Boxtype@@@Z 00414198 f   fltkd:fl_boxtype.obj
 0001:000131ab       ?box_dw@Fl@@SAHW4Fl_Boxtype@@@Z 004141ab f   fltkd:fl_boxtype.obj
 0001:000131be       ?box_dh@Fl@@SAHW4Fl_Boxtype@@@Z 004141be f   fltkd:fl_boxtype.obj
 0001:000131d1       ?fl_internal_boxtype@@YAXW4Fl_Boxtype@@P6AXHHHHW4Fl_Color@@@Z@Z 004141d1 f   fltkd:fl_boxtype.obj
 0001:000131e3       ?set_boxtype@Fl@@SAXW4Fl_Boxtype@@P6AXHHHHW4Fl_Color@@@ZEEEE@Z 004141e3 f   fltkd:fl_boxtype.obj
 0001:00013229       ?set_boxtype@Fl@@SAXW4Fl_Boxtype@@0@Z 00414229 f   fltkd:fl_boxtype.obj
 0001:00013250       ?fl_draw_box@@YAXW4Fl_Boxtype@@HHHHW4Fl_Color@@@Z 00414250 f   fltkd:fl_boxtype.obj
 0001:0001327c       ?draw_box@Fl_Widget@@IBEXXZ 0041427c f   fltkd:fl_boxtype.obj
 0001:000132d1       ?draw_box@Fl_Widget@@IBEXW4Fl_Boxtype@@W4Fl_Color@@@Z 004142d1 f   fltkd:fl_boxtype.obj
 0001:0001330e       ?draw_box@Fl_Widget@@IBEXW4Fl_Boxtype@@HHHHW4Fl_Color@@@Z 0041430e f   fltkd:fl_boxtype.obj
 0001:00013360       ?fl_color@@YAXH@Z          00414360 f i fltkd:fl_boxtype.obj
 0001:00013380       ?_Fl_Slider@Fl_Slider@@AAEXXZ 00414380 f   fltkd:Fl_Slider.obj
 0001:0001339c       ??0Fl_Slider@@QAE@HHHHPBD@Z 0041439c f   fltkd:Fl_Slider.obj
 0001:00013410       ??0Fl_Slider@@QAE@EHHHHPBD@Z 00414410 f   fltkd:Fl_Slider.obj
 0001:000134c0       ?slider_size@Fl_Slider@@QAEXN@Z 004144c0 f   fltkd:Fl_Slider.obj
 0001:00013531       ?bounds@Fl_Slider@@QAEXNN@Z 00414531 f   fltkd:Fl_Slider.obj
 0001:00013584       ?scrollvalue@Fl_Slider@@QAEHHHHH@Z 00414584 f   fltkd:Fl_Slider.obj
 0001:00013628       ?draw_bg@Fl_Slider@@AAEXHHHH@Z 00414628 f   fltkd:Fl_Slider.obj
 0001:000136df       ?draw@Fl_Slider@@IAEXHHHH@Z 004146df f   fltkd:Fl_Slider.obj
 0001:00013b6d       ?draw@Fl_Slider@@UAEXXZ    00414b6d f   fltkd:Fl_Slider.obj
 0001:00013c18       ?handle@Fl_Slider@@IAEHHHHHH@Z 00414c18 f   fltkd:Fl_Slider.obj
 0001:00013fe6       ?handle@Fl_Slider@@UAEHH@Z 00414fe6 f   fltkd:Fl_Slider.obj
 0001:00014080       ??_GFl_Slider@@UAEPAXI@Z   00415080 f i fltkd:Fl_Slider.obj
 0001:00014080       ??_EFl_Slider@@UAEPAXI@Z   00415080 f i fltkd:Fl_Slider.obj
 0001:00014080       ??_GFl_Return_Button@@UAEPAXI@Z 00415080 f i fltkd:fl_ask.obj
 0001:00014080       ??_EFl_Return_Button@@UAEPAXI@Z 00415080 f i fltkd:fl_ask.obj
 0001:000140b0       ?handle_push@Fl_Valuator@@IAEXXZ 004150b0 f i fltkd:Fl_Slider.obj
 0001:000140d0       ?bounds@Fl_Valuator@@QAEXNN@Z 004150d0 f i fltkd:Fl_Slider.obj
 0001:00014100       ?minimum@Fl_Valuator@@QBENXZ 00415100 f i fltkd:Fl_Slider.obj
 0001:00014120       ?maximum@Fl_Valuator@@QBENXZ 00415120 f i fltkd:Fl_Slider.obj
 0001:00014140       ?slider@Fl_Slider@@QBE?AW4Fl_Boxtype@@XZ 00415140 f i fltkd:Fl_Slider.obj
 0001:00014160       ?fl_draw@@YAXPBDHHHHW4Fl_Align@@P6AX0HHH@Z@Z 00415160 f   fltkd:fl_draw.obj
 0001:000145e0       ?fl_draw@@YAXPBDHHHHW4Fl_Align@@@Z 004155e0 f   fltkd:fl_draw.obj
 0001:0001467a       ?fl_measure@@YAXPBDAAH1@Z  0041567a f   fltkd:fl_draw.obj
 0001:00014770       ??0Fl_FontSize@@QAE@PBDH@Z 00415770 f   fltkd:fl_font.obj
 0001:000148e1       ??1Fl_FontSize@@QAE@XZ     004158e1 f   fltkd:fl_font.obj
 0001:0001490e       ?fl_font@@YAXHH@Z          0041590e f   fltkd:fl_font.obj
 0001:00014a3b       ?fl_height@@YAHXZ          00415a3b f   fltkd:fl_font.obj
 0001:00014a57       ?fl_descent@@YAHXZ         00415a57 f   fltkd:fl_font.obj
 0001:00014a67       ?fl_width@@YANPBD@Z        00415a67 f   fltkd:fl_font.obj
 0001:00014aae       ?fl_width@@YANPBDH@Z       00415aae f   fltkd:fl_font.obj
 0001:00014afb       ?fl_width@@YANE@Z          00415afb f   fltkd:fl_font.obj
 0001:00014b12       ?fl_draw@@YAXPBDHHH@Z      00415b12 f   fltkd:fl_font.obj
 0001:00014b5c       ?fl_draw@@YAXPBDHH@Z       00415b5c f   fltkd:fl_font.obj
 0001:00014b90       ?fl_no_label@@YAXPBUFl_Label@@HHHHW4Fl_Align@@@Z 00415b90 f   fltkd:fl_labeltype.obj
 0001:00014b95       ?fl_normal_label@@YAXPBUFl_Label@@HHHHW4Fl_Align@@@Z 00415b95 f   fltkd:fl_labeltype.obj
 0001:00014be7       ?fl_normal_measure@@YAXPBUFl_Label@@AAH1@Z 00415be7 f   fltkd:fl_labeltype.obj
 0001:00014c1c       ?set_labeltype@Fl@@SAXW4Fl_Labeltype@@P6AXPBUFl_Label@@HHHHW4Fl_Align@@@ZP6AX1AAH4@Z@Z 00415c1c f   fltkd:fl_labeltype.obj
 0001:00014c3b       ?draw@Fl_Label@@QBEXHHHHW4Fl_Align@@@Z 00415c3b f   fltkd:fl_labeltype.obj
 0001:00014c7c       ?measure@Fl_Label@@QBEXAAH0@Z 00415c7c f   fltkd:fl_labeltype.obj
 0001:00014cc6       ?draw_label@Fl_Widget@@IBEXXZ 00415cc6 f   fltkd:fl_labeltype.obj
 0001:00014d7c       ?draw_label@Fl_Widget@@IBEXHHHH@Z 00415d7c f   fltkd:fl_labeltype.obj
 0001:00014dca       ?draw_label@Fl_Widget@@QBEXHHHHW4Fl_Align@@@Z 00415dca f   fltkd:fl_labeltype.obj
 0001:00014e50       ?filename_isdir@@YAHPBD@Z  00415e50 f   fltkd:filename_isdir.obj
 0001:00014f10       ?filename_match@@YAHPBD0@Z 00415f10 f   fltkd:filename_match.obj
 0001:00015390       ?bbox@Fl_Browser_@@IBEXAAH000@Z 00416390 f   fltkd:Fl_Browser_.obj
 0001:000154e2       ?leftedge@Fl_Browser_@@IBEHXZ 004164e2 f   fltkd:Fl_Browser_.obj
 0001:0001550a       ?resize@Fl_Browser_@@UAEXHHHH@Z 0041650a f   fltkd:Fl_Browser_.obj
 0001:000155e4       ?redraw_line@Fl_Browser_@@IAEXPAX@Z 004165e4 f   fltkd:Fl_Browser_.obj
 0001:0001564d       ?update_top@Fl_Browser_@@AAEXXZ 0041664d f   fltkd:Fl_Browser_.obj
 0001:0001584f       ?position@Fl_Browser_@@QAEXH@Z 0041684f f   fltkd:Fl_Browser_.obj
 0001:00015892       ?hposition@Fl_Browser_@@QAEXH@Z 00416892 f   fltkd:Fl_Browser_.obj
 0001:000158d5       ?displayed@Fl_Browser_@@IBEHPAX@Z 004168d5 f   fltkd:Fl_Browser_.obj
 0001:0001595b       ?display@Fl_Browser_@@QAEXPAX@Z 0041695b f   fltkd:Fl_Browser_.obj
 0001:00015b43       ?draw@Fl_Browser_@@MAEXXZ  00416b43 f   fltkd:Fl_Browser_.obj
 0001:000163e7       ?new_list@Fl_Browser_@@IAEXXZ 004173e7 f   fltkd:Fl_Browser_.obj
 0001:00016454       ?deleting@Fl_Browser_@@IAEXPAX@Z 00417454 f   fltkd:Fl_Browser_.obj
 0001:0001651d       ?replacing@Fl_Browser_@@IAEXPAX0@Z 0041751d f   fltkd:Fl_Browser_.obj
 0001:0001657d       ?inserting@Fl_Browser_@@IAEXPAX0@Z 0041757d f   fltkd:Fl_Browser_.obj
 0001:000165b6       ?find_item@Fl_Browser_@@IAEPAXH@Z 004175b6 f   fltkd:Fl_Browser_.obj
 0001:00016653       ?select@Fl_Browser_@@QAEHPAXHH@Z 00417653 f   fltkd:Fl_Browser_.obj
 0001:000167b7       ?deselect@Fl_Browser_@@QAEHH@Z 004177b7 f   fltkd:Fl_Browser_.obj
 0001:00016867       ?select_only@Fl_Browser_@@QAEHPAXH@Z 00417867 f   fltkd:Fl_Browser_.obj
 0001:0001691b       ?handle@Fl_Browser_@@UAEHH@Z 0041791b f   fltkd:Fl_Browser_.obj
 0001:000171d9       ??0Fl_Browser_@@IAE@HHHHPBD@Z 004181d9 f   fltkd:Fl_Browser_.obj
 0001:000173a5       ?item_quick_height@Fl_Browser_@@MBEHPAX@Z 004183a5 f   fltkd:Fl_Browser_.obj
 0001:000173c1       ?incr_height@Fl_Browser_@@MBEHXZ 004183c1 f   fltkd:Fl_Browser_.obj
 0001:000173e3       ?full_height@Fl_Browser_@@MBEHXZ 004183e3 f   fltkd:Fl_Browser_.obj
 0001:0001743b       ?full_width@Fl_Browser_@@MBEHXZ 0041843b f   fltkd:Fl_Browser_.obj
 0001:0001744c       ?item_select@Fl_Browser_@@MAEXPAXH@Z 0041844c f   fltkd:Fl_Browser_.obj
 0001:00017459       ?item_selected@Fl_Browser_@@MBEHPAX@Z 00418459 f   fltkd:Fl_Browser_.obj
 0001:00017480       ?value@Fl_Scrollbar@@QAEHHHHH@Z 00418480 f i fltkd:Fl_Browser_.obj
 0001:000174b0       ?linesize@Fl_Scrollbar@@QAEXH@Z 004184b0 f i fltkd:Fl_Browser_.obj
 0001:000174d0       ?top@Fl_Browser_@@IBEPAXXZ 004184d0 f i fltkd:Fl_Browser_.obj
 0001:000174f0       ?redraw_lines@Fl_Browser_@@IAEXXZ 004184f0 f i fltkd:Fl_Browser_.obj
 0001:00017510       ?value@Fl_Scrollbar@@QAEHXZ 00418510 f i fltkd:Fl_Browser_.obj
 0001:00017530       ??_GFl_Browser_@@UAEPAXI@Z 00418530 f i fltkd:Fl_Browser_.obj
 0001:00017530       ??_EFl_Browser_@@UAEPAXI@Z 00418530 f i fltkd:Fl_Browser_.obj
 0001:00017560       ?filename_list@@YAHPBDPAPAPAUdirent@@@Z 00418560 f   fltkd:filename_list.obj
 0001:00017580       ?filename_expand@@YAHPADPBD@Z 00418580 f   fltkd:filename_expand.obj
 0001:00017810       ?filename_absolute@@YAHPADPBD@Z 00418810 f   fltkd:filename_absolute.obj
 0001:00017a20       ?isdirsep@@YAHD@Z          00418a20 f i fltkd:filename_absolute.obj
 0001:00017a50       ?selection@Fl@@SAXAAVFl_Widget@@PBDH@Z 00418a50 f   fltkd:Fl_cutpaste.obj
 0001:00017c43       ?paste@Fl@@SAXAAVFl_Widget@@@Z 00418c43 f   fltkd:Fl_cutpaste.obj
 0001:00017d50       ?show@Fl_Menu_Window@@UAEXXZ 00418d50 f   fltkd:Fl_Menu_Window.obj
 0001:00017d63       ?flush@Fl_Menu_Window@@UAEXXZ 00418d63 f   fltkd:Fl_Menu_Window.obj
 0001:00017d76       ?erase@Fl_Menu_Window@@QAEXXZ 00418d76 f   fltkd:Fl_Menu_Window.obj
 0001:00017d81       ?hide@Fl_Menu_Window@@UAEXXZ 00418d81 f   fltkd:Fl_Menu_Window.obj
 0001:00017d9c       ??1Fl_Menu_Window@@UAE@XZ  00418d9c f   fltkd:Fl_Menu_Window.obj
 0001:00017df0       ?show@Fl_Single_Window@@UAEXXZ 00418df0 f   fltkd:Fl_Single_Window.obj
 0001:00017e03       ?flush@Fl_Single_Window@@UAEXXZ 00418e03 f   fltkd:Fl_Single_Window.obj
 0001:00017e20       ?grab@Fl@@SAXPAVFl_Window@@@Z 00418e20 f   fltkd:Fl_grab.obj
 0001:00017ea0       ?increment_cb@Fl_Scrollbar@@AAEXXZ 00418ea0 f   fltkd:Fl_Scrollbar.obj
 0001:00017fd2       ?timeout_cb@Fl_Scrollbar@@CAXPAX@Z 00418fd2 f   fltkd:Fl_Scrollbar.obj
 0001:00018003       ?handle@Fl_Scrollbar@@UAEHH@Z 00419003 f   fltkd:Fl_Scrollbar.obj
 0001:0001860a       ?draw@Fl_Scrollbar@@MAEXXZ 0041960a f   fltkd:Fl_Scrollbar.obj
 0001:00018ab7       ??0Fl_Scrollbar@@QAE@HHHHPBD@Z 00419ab7 f   fltkd:Fl_Scrollbar.obj
 0001:00018b60       ?labelcolor@Fl_Widget@@QBE?AW4Fl_Color@@XZ 00419b60 f i fltkd:Fl_Scrollbar.obj
 0001:00018b80       ??_EFl_Scrollbar@@UAEPAXI@Z 00419b80 f i fltkd:Fl_Scrollbar.obj
 0001:00018b80       ??_GFl_Scrollbar@@UAEPAXI@Z 00419b80 f i fltkd:Fl_Scrollbar.obj
 0001:00018b80       ??_GFl_Value_Slider@@UAEPAXI@Z 00419b80 f i fltkd:Fl_Value_Slider.obj
 0001:00018b80       ??_EFl_Value_Slider@@UAEPAXI@Z 00419b80 f i fltkd:Fl_Value_Slider.obj
 0001:00018bb0       ?slider_size@Fl_Slider@@QBEMXZ 00419bb0 f i fltkd:Fl_Scrollbar.obj
 0001:00018bd0       ?slider@Fl_Slider@@QAEXW4Fl_Boxtype@@@Z 00419bd0 f i fltkd:Fl_Scrollbar.obj
 0001:00018bf0       _scandir                   00419bf0 f   fltkd:scandir.obj
 0001:00018eed       _alphasort                 00419eed f   fltkd:scandir.obj
 0001:00018f10       _numericsort               00419f10 f   fltkd:numericsort.obj
 0001:00019230       _WinMain@16                0041a230 f   fltkd:fl_call_main.obj
 0001:000192f0       ?GetOption@@YAHHPAPADPAD0@Z 0041a2f0 f   getopt.obj
 0001:000193d0       ?getopt@@YAHHPAPADPAD@Z    0041a3d0 f   getopt.obj
 0001:00019410       ??0?$basic_string@DU?$char_traits@D@std@@V?$allocator@D@2@@std@@QAE@PBD@Z 0041a410 f i main.obj
 0001:00019470       ??3@YAXPAX0@Z              0041a470 f i main.obj
 0001:00019480       ??_G_System_error_category@std@@UAEPAXI@Z 0041a480 f i main.obj
 0001:00019480       ??_G_Iostream_error_category@std@@UAEPAXI@Z 0041a480 f i main.obj
 0001:00019480       ??_G_Generic_error_category@std@@UAEPAXI@Z 0041a480 f i main.obj
 0001:00019480       ??_E_Generic_error_category@std@@UAEPAXI@Z 0041a480 f i main.obj
 0001:00019480       ??_Gerror_category@std@@UAEPAXI@Z 0041a480 f i main.obj
 0001:00019480       ??_E_System_error_category@std@@UAEPAXI@Z 0041a480 f i main.obj
 0001:00019480       ??_Eerror_category@std@@UAEPAXI@Z 0041a480 f i main.obj
 0001:00019480       ??_E_Iostream_error_category@std@@UAEPAXI@Z 0041a480 f i main.obj
 0001:000194b0       ?_Copy@?$basic_string@DU?$char_traits@D@std@@V?$allocator@D@2@@std@@QAEXII@Z 0041a4b0 f i main.obj
 0001:00019600       ?_Eos@?$basic_string@DU?$char_traits@D@std@@V?$allocator@D@2@@std@@QAEXI@Z 0041a600 f i main.obj
 0001:00019630       ?_Grow@?$basic_string@DU?$char_traits@D@std@@V?$allocator@D@2@@std@@QAE_NI_N@Z 0041a630 f i main.obj
 0001:000196e0       ?allocate@?$_Wrap_alloc@V?$allocator@D@std@@@std@@QAEPADI@Z 0041a6e0 f i main.obj
 0001:00019710       ?assign@?$basic_string@DU?$char_traits@D@std@@V?$allocator@D@2@@std@@QAEAAV12@ABV12@II@Z 0041a710 f i main.obj
 0001:00019830       ?assign@?$basic_string@DU?$char_traits@D@std@@V?$allocator@D@2@@std@@QAEAAV12@PBDI@Z 0041a830 f i main.obj
 0001:00019930       ?default_error_condition@_System_error_category@std@@UBE?AVerror_condition@2@H@Z 0041a930 f i main.obj
 0001:00019970       ?default_error_condition@error_category@std@@UBE?AVerror_condition@2@H@Z 0041a970 f i main.obj
 0001:00019990       ?equivalent@error_category@std@@UBE_NABVerror_code@2@H@Z 0041a990 f i main.obj
 0001:000199b0       ?equivalent@error_category@std@@UBE_NHABVerror_condition@2@@Z 0041a9b0 f i main.obj
 0001:000199f0       ?erase@?$basic_string@DU?$char_traits@D@std@@V?$allocator@D@2@@std@@QAEAAV12@II@Z 0041a9f0 f i main.obj
 0001:00019a90       ?message@_Generic_error_category@std@@UBE?AV?$basic_string@DU?$char_traits@D@std@@V?$allocator@D@2@@2@H@Z 0041aa90 f i main.obj
 0001:00019b10       ?message@_Iostream_error_category@std@@UBE?AV?$basic_string@DU?$char_traits@D@std@@V?$allocator@D@2@@2@H@Z 0041ab10 f i main.obj
 0001:00019b60       ?message@_System_error_category@std@@UBE?AV?$basic_string@DU?$char_traits@D@std@@V?$allocator@D@2@@2@H@Z 0041ab60 f i main.obj
 0001:00019be0       ?name@_Generic_error_category@std@@UBEPBDXZ 0041abe0 f i main.obj
 0001:00019bf0       ?name@_Iostream_error_category@std@@UBEPBDXZ 0041abf0 f i main.obj
 0001:00019c00       ?name@_System_error_category@std@@UBEPBDXZ 0041ac00 f i main.obj
 0001:00019c10       ?processArgs@@YA_NHPAPAD@Z 0041ac10 f   main.obj
 0001:00019d00       _main                      0041ad00 f   main.obj
 0001:00019f30       ??0RayTracer@@QAE@XZ       0041af30 f   RayTracer.obj
 0001:00019f60       ??1ObjTypeMismatch@@QAE@XZ 0041af60 f i parse.obj
 0001:00019f60       ??1?$basic_string@DU?$char_traits@D@std@@V?$allocator@D@2@@std@@QAE@XZ 0041af60 f i main.obj
 0001:00019f60       ??1ParseError@@QAE@XZ      0041af60 f i RayTracer.obj
 0001:00019f90       ??1isect@@QAE@XZ           0041af90 f i RayTracer.obj
 0001:00019fa0       ?aspectRatio@RayTracer@@QAENXZ 0041afa0 f   RayTracer.obj
 0001:00019fe0       ?getBuffer@RayTracer@@QAEXAAPAEAAH1@Z 0041afe0 f   RayTracer.obj
 0001:0001a000       ?loadScene@RayTracer@@QAE_NPAD@Z 0041b000 f   RayTracer.obj
 0001:0001a150       ?sceneLoaded@RayTracer@@QAE_NXZ 0041b150 f   RayTracer.obj
 0001:0001a160       ?traceLines@RayTracer@@QAEXHH@Z 0041b160 f   RayTracer.obj
 0001:0001a300       ?tracePixel@RayTracer@@QAEXHH@Z 0041b300 f   RayTracer.obj
 0001:0001a450       ?traceRay@RayTracer@@QAE?AVvec3f@@PAVScene@@ABVray@@ABV2@H@Z 0041b450 f   RayTracer.obj
 0001:0001ab00       ?traceSetup@RayTracer@@QAEXHH@Z 0041bb00 f   RayTracer.obj
 0001:0001ab60       ??0TraceGLWindow@@QAE@HHHHPBD@Z 0041bb60 f   TraceGLWindow.obj
 0001:0001abe0       ??_ETraceGLWindow@@UAEPAXI@Z 0041bbe0 f i TraceGLWindow.obj
 0001:0001abe0       ??_EFl_Gl_Window@@UAEPAXI@Z 0041bbe0 f i TraceGLWindow.obj
 0001:0001abe0       ??_GFl_Gl_Window@@UAEPAXI@Z 0041bbe0 f i TraceGLWindow.obj
 0001:0001abe0       ??_GTraceGLWindow@@UAEPAXI@Z 0041bbe0 f i TraceGLWindow.obj
 0001:0001ac10       ?draw@TraceGLWindow@@UAEXXZ 0041bc10 f   TraceGLWindow.obj
 0001:0001ace0       ?h@Fl_Widget@@QBEHXZ       0041bce0 f i TraceGLWindow.obj
 0001:0001acf0       ?handle@TraceGLWindow@@UAEHH@Z 0041bcf0 f   TraceGLWindow.obj
 0001:0001ad00       ?refresh@TraceGLWindow@@QAEXXZ 0041bd00 f   TraceGLWindow.obj
 0001:0001ad10       ?resizeWindow@TraceGLWindow@@QAEXHH@Z 0041bd10 f   TraceGLWindow.obj
 0001:0001ad40       ?saveImage@TraceGLWindow@@QAEXPAD@Z 0041bd40 f   TraceGLWindow.obj
 0001:0001ad80       ?setRayTracer@TraceGLWindow@@QAEXPAVRayTracer@@@Z 0041bd80 f   TraceGLWindow.obj
 0001:0001ad90       ?w@Fl_Widget@@QBEHXZ       0041bd90 f i TraceGLWindow.obj
 0001:0001ada0       ?x@Fl_Widget@@QBEHXZ       0041bda0 f i TraceGLWindow.obj
 0001:0001adb0       ?y@Fl_Widget@@QBEHXZ       0041bdb0 f i TraceGLWindow.obj
 0001:0001adc0       ?cb_load_scene@TraceUI@@CAXPAVFl_Menu_@@PAX@Z 0041bdc0 f   TraceUI.obj
 0001:0001ae60       ?cb_save_image@TraceUI@@CAXPAVFl_Menu_@@PAX@Z 0041be60 f   TraceUI.obj
 0001:0001aea0       ?cb_exit@TraceUI@@CAXPAVFl_Menu_@@PAX@Z 0041bea0 f   TraceUI.obj
 0001:0001aed0       ?cb_about@TraceUI@@CAXPAVFl_Menu_@@PAX@Z 0041bed0 f   TraceUI.obj
 0001:0001aee0       ??0TraceUI@@QAE@XZ         0041bee0 f   TraceUI.obj
 0001:0001b220       ??_GFl_Menu_Bar@@UAEPAXI@Z 0041c220 f i TraceUI.obj
 0001:0001b220       ??_EFl_Menu_Bar@@UAEPAXI@Z 0041c220 f i TraceUI.obj
 0001:0001b250       ?align@Fl_Widget@@QAEXE@Z  0041c250 f i TraceUI.obj
 0001:0001b260       ?callback@Fl_Widget@@QAEXP6AXPAV1@PAX@Z@Z 0041c260 f i TraceUI.obj
 0001:0001b270       ?cb_depthSlides@TraceUI@@CAXPAVFl_Widget@@PAX@Z 0041c270 f   TraceUI.obj
 0001:0001b290       ?cb_exit2@TraceUI@@CAXPAVFl_Widget@@PAX@Z 0041c290 f   TraceUI.obj
 0001:0001b2c0       ?cb_render@TraceUI@@CAXPAVFl_Widget@@PAX@Z 0041c2c0 f   TraceUI.obj
 0001:0001b4d0       ?cb_sizeSlides@TraceUI@@CAXPAVFl_Widget@@PAX@Z 0041c4d0 f   TraceUI.obj
 0001:0001b520       ?cb_stop@TraceUI@@CAXPAVFl_Widget@@PAX@Z 0041c520 f   TraceUI.obj
 0001:0001b530       ?damage@Fl@@SAHXZ          0041c530 f i TraceUI.obj
 0001:0001b540       ?end@Fl_Group@@QAEXXZ      0041c540 f i TraceUI.obj
 0001:0001b550       ?label@Fl_Window@@QBEPBDXZ 0041c550 f i TraceUI.obj
 0001:0001b550       ?label@Fl_Widget@@QBEPBDXZ 0041c550 f i TraceUI.obj
 0001:0001b560       ?labelfont@Fl_Widget@@QAEXE@Z 0041c560 f i TraceUI.obj
 0001:0001b570       ?labelsize@Fl_Widget@@QAEXE@Z 0041c570 f i TraceUI.obj
 0001:0001b580       ?parent@Fl_Widget@@QBEPAV1@XZ 0041c580 f i TraceUI.obj
 0001:0001b590       ?resizable@Fl_Group@@QAEXPAVFl_Widget@@@Z 0041c590 f i TraceUI.obj
 0001:0001b5a0       ?setRayTracer@TraceUI@@QAEXPAVRayTracer@@@Z 0041c5a0 f   TraceUI.obj
 0001:0001b5c0       ?show@TraceUI@@QAEXXZ      0041c5c0 f   TraceUI.obj
 0001:0001b5d0       ?step@Fl_Valuator@@QAEXH@Z 0041c5d0 f i TraceUI.obj
 0001:0001b5f0       ?type@Fl_Widget@@QAEXE@Z   0041c5f0 f i TraceUI.obj
 0001:0001b600       ?user_data@Fl_Widget@@QAEXPAX@Z 0041c600 f i TraceUI.obj
 0001:0001b610       ?value@Fl_Valuator@@QBENXZ 0041c610 f i TraceUI.obj
 0001:0001b620       ?when@Fl_Widget@@QAEXE@Z   0041c620 f i TraceUI.obj
 0001:0001b630       ?writeBMP@@YAXPADHHPAE@Z   0041c630 f   bitmap.obj
 0001:0001b7c0       ??$?6DU?$char_traits@D@std@@V?$allocator@D@1@@std@@YAAAV?$basic_ostream@DU?$char_traits@D@std@@@0@AAV10@ABV?$basic_string@DU?$char_traits@D@std@@V?$allocator@D@2@@0@@Z 0041c7c0 f i parse.obj
 0001:0001b9b0       ??$?6U?$char_traits@D@std@@@std@@YAAAV?$basic_ostream@DU?$char_traits@D@std@@@0@AAV10@D@Z 0041c9b0 f i parse.obj
 0001:0001bbb0       ??$?6U?$char_traits@D@std@@@std@@YAAAV?$basic_ostream@DU?$char_traits@D@std@@@0@AAV10@PBD@Z 0041cbb0 f i parse.obj
 0001:0001bde0       ??$?8DU?$char_traits@D@std@@V?$allocator@D@1@@std@@YA_NABV?$basic_string@DU?$char_traits@D@std@@V?$allocator@D@2@@0@PBD@Z 0041cde0 f i parse.obj
 0001:0001be20       ??$?HDU?$char_traits@D@std@@V?$allocator@D@1@@std@@YA?AV?$basic_string@DU?$char_traits@D@std@@V?$allocator@D@2@@0@$$QAV10@0@Z 0041ce20 f i parse.obj
 0001:0001be90       ??$?HDU?$char_traits@D@std@@V?$allocator@D@1@@std@@YA?AV?$basic_string@DU?$char_traits@D@std@@V?$allocator@D@2@@0@$$QAV10@ABV10@@Z 0041ce90 f i parse.obj
 0001:0001bf10       ??$_Buynode@AAU?$pair@$$CBV?$basic_string@DU?$char_traits@D@std@@V?$allocator@D@2@@std@@PAVObj@@@std@@@?$_Tree_buy@U?$pair@$$CBV?$basic_string@DU?$char_traits@D@std@@V?$allocator@D@2@@std@@PAVObj@@@std@@V?$allocator@U?$pair@$$CBV?$basic_string@DU?$char_traits@D@std@@V?$allocator@D@2@@std@@PAVObj@@@std@@@2@@std@@QAEPAU?$_Tree_node@U?$pair@$$CBV?$basic_string@DU?$char_traits@D@std@@V?$allocator@D@2@@std@@PAVObj@@@std@@PAX@1@AAU?$pair@$$CBV?$basic_string@DU?$char_traits@D@std@@V?$allocator@D@2@@std@@PAVObj@@@1@@Z 0041cf10 f i parse.obj
 0001:0001bfc0       ??$_Copy@U?$integral_constant@_N$0A@@std@@@?$_Tree@V?$_Tmap_traits@V?$basic_string@DU?$char_traits@D@std@@V?$allocator@D@2@@std@@PAVObj@@U?$less@V?$basic_string@DU?$char_traits@D@std@@V?$allocator@D@2@@std@@@2@V?$allocator@U?$pair@$$CBV?$basic_string@DU?$char_traits@D@std@@V?$allocator@D@2@@std@@PAVObj@@@std@@@2@$0A@@std@@@std@@IAEXABV01@U?$integral_constant@_N$0A@@1@@Z 0041cfc0 f i parse.obj
 0001:0001c040       ??$_Copy_nodes@U?$integral_constant@_N$0A@@std@@@?$_Tree@V?$_Tmap_traits@V?$basic_string@DU?$char_traits@D@std@@V?$allocator@D@2@@std@@PAVObj@@U?$less@V?$basic_string@DU?$char_traits@D@std@@V?$allocator@D@2@@std@@@2@V?$allocator@U?$pair@$$CBV?$basic_string@DU?$char_traits@D@std@@V?$allocator@D@2@@std@@PAVObj@@@std@@@2@$0A@@std@@@std@@IAEPAU?$_Tree_node@U?$pair@$$CBV?$basic_string@DU?$char_traits@D@std@@V?$allocator@D@2@@std@@PAVObj@@@std@@PAX@1@PAU21@0U?$integral_constant@_N$0A@@1@@Z 0041d040 f i parse.obj
 0001:0001c100       ??$_Insert_at@AAU?$pair@$$CBV?$basic_string@DU?$char_traits@D@std@@V?$allocator@D@2@@std@@PAVObj@@@std@@PAU?$_Tree_node@U?$pair@$$CBV?$basic_string@DU?$char_traits@D@std@@V?$allocator@D@2@@std@@PAVObj@@@std@@PAX@2@@?$_Tree@V?$_Tmap_traits@V?$basic_string@DU?$char_traits@D@std@@V?$allocator@D@2@@std@@PAVObj@@U?$less@V?$basic_string@DU?$char_traits@D@std@@V?$allocator@D@2@@std@@@2@V?$allocator@U?$pair@$$CBV?$basic_string@DU?$char_traits@D@std@@V?$allocator@D@2@@std@@PAVObj@@@std@@@2@$0A@@std@@@std@@IAE?AV?$_Tree_iterator@V?$_Tree_val@U?$_Tree_simple_types@U?$pair@$$CBV?$basic_string@DU?$char_traits@D@std@@V?$allocator@D@2@@std@@PAVObj@@@std@@@std@@@std@@@1@_NPAU?$_Tree_node@U?$pair@$$CBV?$basic_string@DU?$char_traits@D@std@@V?$allocator@D@2@@std@@PAVObj@@@std@@PAX@1@AAU?$pair@$$CBV?$basic_string@DU?$char_traits@D@std@@V?$allocator@D@2@@std@@PAVObj@@@1@1@Z 0041d100 f i parse.obj
 0001:0001c100       ??$_Insert_at@AAU?$pair@$$CBV?$basic_string@DU?$char_traits@D@std@@V?$allocator@D@2@@std@@PAVMaterial@@@std@@PAU?$_Tree_node@U?$pair@$$CBV?$basic_string@DU?$char_traits@D@std@@V?$allocator@D@2@@std@@PAVMaterial@@@std@@PAX@2@@?$_Tree@V?$_Tmap_traits@V?$basic_string@DU?$char_traits@D@std@@V?$allocator@D@2@@std@@PAVMaterial@@U?$less@V?$basic_string@DU?$char_traits@D@std@@V?$allocator@D@2@@std@@@2@V?$allocator@U?$pair@$$CBV?$basic_string@DU?$char_traits@D@std@@V?$allocator@D@2@@std@@PAVMaterial@@@std@@@2@$0A@@std@@@std@@IAE?AV?$_Tree_iterator@V?$_Tree_val@U?$_Tree_simple_types@U?$pair@$$CBV?$basic_string@DU?$char_traits@D@std@@V?$allocator@D@2@@std@@PAVMaterial@@@std@@@std@@@std@@@1@_NPAU?$_Tree_node@U?$pair@$$CBV?$basic_string@DU?$char_traits@D@std@@V?$allocator@D@2@@std@@PAVMaterial@@@std@@PAX@1@AAU?$pair@$$CBV?$basic_string@DU?$char_traits@D@std@@V?$allocator@D@2@@std@@PAVMaterial@@@1@1@Z 0041d100 f i read.obj
 0001:0001c330       ??$_Insert_nohint@AAU?$pair@$$CBV?$basic_string@DU?$char_traits@D@std@@V?$allocator@D@2@@std@@PAVObj@@@std@@PAU?$_Tree_node@U?$pair@$$CBV?$basic_string@DU?$char_traits@D@std@@V?$allocator@D@2@@std@@PAVObj@@@std@@PAX@2@@?$_Tree@V?$_Tmap_traits@V?$basic_string@DU?$char_traits@D@std@@V?$allocator@D@2@@std@@PAVObj@@U?$less@V?$basic_string@DU?$char_traits@D@std@@V?$allocator@D@2@@std@@@2@V?$allocator@U?$pair@$$CBV?$basic_string@DU?$char_traits@D@std@@V?$allocator@D@2@@std@@PAVObj@@@std@@@2@$0A@@std@@@std@@IAE?AU?$pair@V?$_Tree_iterator@V?$_Tree_val@U?$_Tree_simple_types@U?$pair@$$CBV?$basic_string@DU?$char_traits@D@std@@V?$allocator@D@2@@std@@PAVObj@@@std@@@std@@@std@@@std@@_N@1@_NAAU?$pair@$$CBV?$basic_string@DU?$char_traits@D@std@@V?$allocator@D@2@@std@@PAVObj@@@1@PAU?$_Tree_node@U?$pair@$$CBV?$basic_string@DU?$char_traits@D@std@@V?$allocator@D@2@@std@@PAVObj@@@std@@PAX@1@@Z 0041d330 f i parse.obj
 0001:0001c330       ??$_Insert_nohint@AAU?$pair@$$CBV?$basic_string@DU?$char_traits@D@std@@V?$allocator@D@2@@std@@PAVMaterial@@@std@@PAU?$_Tree_node@U?$pair@$$CBV?$basic_string@DU?$char_traits@D@std@@V?$allocator@D@2@@std@@PAVMaterial@@@std@@PAX@2@@?$_Tree@V?$_Tmap_traits@V?$basic_string@DU?$char_traits@D@std@@V?$allocator@D@2@@std@@PAVMaterial@@U?$less@V?$basic_string@DU?$char_traits@D@std@@V?$allocator@D@2@@std@@@2@V?$allocator@U?$pair@$$CBV?$basic_string@DU?$char_traits@D@std@@V?$allocator@D@2@@std@@PAVMaterial@@@std@@@2@$0A@@std@@@std@@IAE?AU?$pair@V?$_Tree_iterator@V?$_Tree_val@U?$_Tree_simple_types@U?$pair@$$CBV?$basic_string@DU?$char_traits@D@std@@V?$allocator@D@2@@std@@PAVMaterial@@@std@@@std@@@std@@@std@@_N@1@_NAAU?$pair@$$CBV?$basic_string@DU?$char_traits@D@std@@V?$allocator@D@2@@std@@PAVMaterial@@@1@PAU?$_Tree_node@U?$pair@$$CBV?$basic_string@DU?$char_traits@D@std@@V?$allocator@D@2@@std@@PAVMaterial@@@std@@PAX@1@@Z 0041d330 f i read.obj
 0001:0001c5c0       ??0?$_Tree@V?$_Tmap_traits@V?$basic_string@DU?$char_traits@D@std@@V?$allocator@D@2@@std@@PAVObj@@U?$less@V?$basic_string@DU?$char_traits@D@std@@V?$allocator@D@2@@std@@@2@V?$allocator@U?$pair@$$CBV?$basic_string@DU?$char_traits@D@std@@V?$allocator@D@2@@std@@PAVObj@@@std@@@2@$0A@@std@@@std@@QAE@ABV01@ABV?$allocator@U?$pair@$$CBV?$basic_string@DU?$char_traits@D@std@@V?$allocator@D@2@@std@@PAVObj@@@std@@@1@@Z 0041d5c0 f i parse.obj
 0001:0001c660       ??0?$basic_string@DU?$char_traits@D@std@@V?$allocator@D@2@@std@@QAE@$$QAV01@@Z 0041d660 f i parse.obj
 0001:0001c6d0       ??0?$vector@PAVObj@@V?$allocator@PAVObj@@@std@@@std@@QAE@ABV01@@Z 0041d6d0 f i parse.obj
 0001:0001c730       ??0IdObj@@QAE@ABV?$basic_string@DU?$char_traits@D@std@@V?$allocator@D@2@@std@@@Z 0041d730 f i parse.obj
 0001:0001c7a0       ??0NamedObj@@QAE@ABV?$basic_string@DU?$char_traits@D@std@@V?$allocator@D@2@@std@@PAVObj@@@Z 0041d7a0 f i parse.obj
 0001:0001c810       ??0ObjTypeMismatch@@QAE@V?$basic_string@DU?$char_traits@D@std@@V?$allocator@D@2@@std@@0@Z 0041d810 f i parse.obj
 0001:0001ca90       ??0ParseError@@QAE@ABV0@@Z 0041da90 f i parse.obj
 0001:0001ca90       ??0?$basic_string@DU?$char_traits@D@std@@V?$allocator@D@2@@std@@QAE@ABV01@@Z 0041da90 f i parse.obj
 0001:0001ca90       ??0Exception@@QAE@ABV0@@Z  0041da90 f i parse.obj
 0001:0001ca90       ??0ParseError@@QAE@ABV?$basic_string@DU?$char_traits@D@std@@V?$allocator@D@2@@std@@@Z 0041da90 f i parse.obj
 0001:0001ca90       ??0ObjTypeMismatch@@QAE@ABV0@@Z 0041da90 f i parse.obj
 0001:0001cac0       ??1?$_Tree_comp@$0A@V?$_Tmap_traits@V?$basic_string@DU?$char_traits@D@std@@V?$allocator@D@2@@std@@PAVObj@@U?$less@V?$basic_string@DU?$char_traits@D@std@@V?$allocator@D@2@@std@@@2@V?$allocator@U?$pair@$$CBV?$basic_string@DU?$char_traits@D@std@@V?$allocator@D@2@@std@@PAVObj@@@std@@@2@$0A@@std@@@std@@QAE@XZ 0041dac0 f i parse.obj
 0001:0001cad0       ??1DictObj@@UAE@XZ         0041dad0 f i parse.obj
 0001:0001cbb0       ??1Obj@@UAE@XZ             0041dbb0 f i parse.obj
 0001:0001cbc0       ??1TupleObj@@UAE@XZ        0041dbc0 f i parse.obj
 0001:0001cc50       ??1_Sentry_base@?$basic_ostream@DU?$char_traits@D@std@@@std@@QAE@XZ 0041dc50 f i parse.obj
 0001:0001cc70       ??1sentry@?$basic_ostream@DU?$char_traits@D@std@@@std@@QAE@XZ 0041dc70 f i parse.obj
 0001:0001cca0       ??4?$basic_string@DU?$char_traits@D@std@@V?$allocator@D@2@@std@@QAEAAV01@$$QAV01@@Z 0041dca0 f i parse.obj
 0001:0001cce0       ??R?$less@V?$basic_string@DU?$char_traits@D@std@@V?$allocator@D@2@@std@@@std@@QBE_NABV?$basic_string@DU?$char_traits@D@std@@V?$allocator@D@2@@1@0@Z 0041dce0 f i parse.obj
 0001:0001cd10       ??_EDictObj@@UAEPAXI@Z     0041dd10 f i parse.obj
 0001:0001cd10       ??_GDictObj@@UAEPAXI@Z     0041dd10 f i parse.obj
 0001:0001cd40       ??_GIdObj@@UAEPAXI@Z       0041dd40 f i parse.obj
 0001:0001cd40       ??_EIdObj@@UAEPAXI@Z       0041dd40 f i parse.obj
 0001:0001cd90       ??_ENamedObj@@UAEPAXI@Z    0041dd90 f i parse.obj
 0001:0001cd90       ??_GNamedObj@@UAEPAXI@Z    0041dd90 f i parse.obj
 0001:0001ce20       ??_EBooleanObj@@UAEPAXI@Z  0041de20 f i parse.obj
 0001:0001ce20       ??_GBooleanObj@@UAEPAXI@Z  0041de20 f i parse.obj
 0001:0001ce20       ??_GObj@@UAEPAXI@Z         0041de20 f i parse.obj
 0001:0001ce20       ??_GScalarObj@@UAEPAXI@Z   0041de20 f i parse.obj
 0001:0001ce20       ??_EObj@@UAEPAXI@Z         0041de20 f i parse.obj
 0001:0001ce20       ??_EScalarObj@@UAEPAXI@Z   0041de20 f i parse.obj
 0001:0001ce50       ??_GStringObj@@UAEPAXI@Z   0041de50 f i parse.obj
 0001:0001ce50       ??_EStringObj@@UAEPAXI@Z   0041de50 f i parse.obj
 0001:0001cea0       ??_ETupleObj@@UAEPAXI@Z    0041dea0 f i parse.obj
 0001:0001cea0       ??_GTupleObj@@UAEPAXI@Z    0041dea0 f i parse.obj
 0001:0001ced0       ?_Assign_rv@?$basic_string@DU?$char_traits@D@std@@V?$allocator@D@2@@std@@QAEX$$QAV12@@Z 0041ded0 f i parse.obj
 0001:0001cf30       ?_Buy@?$vector@PAVObj@@V?$allocator@PAVObj@@@std@@@std@@IAE_NI@Z 0041df30 f i parse.obj
 0001:0001cfa0       ?_Chassign@?$basic_string@DU?$char_traits@D@std@@V?$allocator@D@2@@std@@QAEXIID@Z 0041dfa0 f i parse.obj
 0001:0001cff0       ?_Destroy_if_not_nil@?$_Tree@V?$_Tmap_traits@V?$basic_string@DU?$char_traits@D@std@@V?$allocator@D@2@@std@@PAVMaterial@@U?$less@V?$basic_string@DU?$char_traits@D@std@@V?$allocator@D@2@@std@@@2@V?$allocator@U?$pair@$$CBV?$basic_string@DU?$char_traits@D@std@@V?$allocator@D@2@@std@@PAVMaterial@@@std@@@2@$0A@@std@@@std@@IAEXPAU?$_Tree_node@U?$pair@$$CBV?$basic_string@DU?$char_traits@D@std@@V?$allocator@D@2@@std@@PAVMaterial@@@std@@PAX@2@@Z 0041dff0 f i read.obj
 0001:0001cff0       ?_Destroy_if_not_nil@?$_Tree@V?$_Tmap_traits@V?$basic_string@DU?$char_traits@D@std@@V?$allocator@D@2@@std@@PAVObj@@U?$less@V?$basic_string@DU?$char_traits@D@std@@V?$allocator@D@2@@std@@@2@V?$allocator@U?$pair@$$CBV?$basic_string@DU?$char_traits@D@std@@V?$allocator@D@2@@std@@PAVObj@@@std@@@2@$0A@@std@@@std@@IAEXPAU?$_Tree_node@U?$pair@$$CBV?$basic_string@DU?$char_traits@D@std@@V?$allocator@D@2@@std@@PAVObj@@@std@@PAX@2@@Z 0041dff0 f i parse.obj
 0001:0001d030       ?_Reallocate@?$vector@PAVObj@@V?$allocator@PAVObj@@@std@@@std@@IAEXI@Z 0041e030 f i parse.obj
 0001:0001d030       ?_Reallocate@?$vector@PAVTrimeshFace@@V?$allocator@PAVTrimeshFace@@@std@@@std@@IAEXI@Z 0041e030 f i trimesh.obj
 0001:0001d030       ?_Reallocate@?$vector@PAVMaterial@@V?$allocator@PAVMaterial@@@std@@@std@@IAEXI@Z 0041e030 f i trimesh.obj
 0001:0001d0b0       ?_Reserve@?$vector@PAVTrimeshFace@@V?$allocator@PAVTrimeshFace@@@std@@@std@@IAEXI@Z 0041e0b0 f i trimesh.obj
 0001:0001d0b0       ?_Reserve@?$vector@PAVObj@@V?$allocator@PAVObj@@@std@@@std@@IAEXI@Z 0041e0b0 f i parse.obj
 0001:0001d0b0       ?_Reserve@?$vector@PAVMaterial@@V?$allocator@PAVMaterial@@@std@@@std@@IAEXI@Z 0041e0b0 f i trimesh.obj
 0001:0001d130       ?append@?$basic_string@DU?$char_traits@D@std@@V?$allocator@D@2@@std@@QAEAAV12@ABV12@II@Z 0041e130 f i parse.obj
 0001:0001d1f0       ?append@?$basic_string@DU?$char_traits@D@std@@V?$allocator@D@2@@std@@QAEAAV12@ID@Z 0041e1f0 f i parse.obj
 0001:0001d2a0       ?compare@?$basic_string@DU?$char_traits@D@std@@V?$allocator@D@2@@std@@QBEHIIPBDI@Z 0041e2a0 f i parse.obj
 0001:0001d310       ?compare@?$char_traits@D@std@@SAHPBD0I@Z 0041e310 f i parse.obj
 0001:0001d5c0       ?erase@?$_Tree@V?$_Tmap_traits@V?$basic_string@DU?$char_traits@D@std@@V?$allocator@D@2@@std@@PAVMaterial@@U?$less@V?$basic_string@DU?$char_traits@D@std@@V?$allocator@D@2@@std@@@2@V?$allocator@U?$pair@$$CBV?$basic_string@DU?$char_traits@D@std@@V?$allocator@D@2@@std@@PAVMaterial@@@std@@@2@$0A@@std@@@std@@QAE?AV?$_Tree_iterator@V?$_Tree_val@U?$_Tree_simple_types@U?$pair@$$CBV?$basic_string@DU?$char_traits@D@std@@V?$allocator@D@2@@std@@PAVMaterial@@@std@@@std@@@std@@@2@V?$_Tree_const_iterator@V?$_Tree_val@U?$_Tree_simple_types@U?$pair@$$CBV?$basic_string@DU?$char_traits@D@std@@V?$allocator@D@2@@std@@PAVMaterial@@@std@@@std@@@std@@@2@@Z 0041e5c0 f i read.obj
 0001:0001d5c0       ?erase@?$_Tree@V?$_Tmap_traits@V?$basic_string@DU?$char_traits@D@std@@V?$allocator@D@2@@std@@PAVObj@@U?$less@V?$basic_string@DU?$char_traits@D@std@@V?$allocator@D@2@@std@@@2@V?$allocator@U?$pair@$$CBV?$basic_string@DU?$char_traits@D@std@@V?$allocator@D@2@@std@@PAVObj@@@std@@@2@$0A@@std@@@std@@QAE?AV?$_Tree_iterator@V?$_Tree_val@U?$_Tree_simple_types@U?$pair@$$CBV?$basic_string@DU?$char_traits@D@std@@V?$allocator@D@2@@std@@PAVObj@@@std@@@std@@@std@@@2@V?$_Tree_const_iterator@V?$_Tree_val@U?$_Tree_simple_types@U?$pair@$$CBV?$basic_string@DU?$char_traits@D@std@@V?$allocator@D@2@@std@@PAVObj@@@std@@@std@@@std@@@2@@Z 0041e5c0 f i parse.obj
 0001:0001d870       ?getBoolean@BooleanObj@@UBE_NXZ 0041e870 f i parse.obj
 0001:0001d880       ?getBoolean@Obj@@UBE_NXZ   0041e880 f i parse.obj
 0001:0001d930       ?getChild@NamedObj@@UBEPAVObj@@XZ 0041e930 f i parse.obj
 0001:0001d940       ?getName@Obj@@UBE?AV?$basic_string@DU?$char_traits@D@std@@V?$allocator@D@2@@std@@XZ 0041e940 f i parse.obj
 0001:0001d940       ?getChild@Obj@@UBEPAV1@XZ  0041e940 f i parse.obj
 0001:0001d9f0       ?getDict@Obj@@UBEABV?$map@V?$basic_string@DU?$char_traits@D@std@@V?$allocator@D@2@@std@@PAVObj@@U?$less@V?$basic_string@DU?$char_traits@D@std@@V?$allocator@D@2@@std@@@2@V?$allocator@U?$pair@$$CBV?$basic_string@DU?$char_traits@D@std@@V?$allocator@D@2@@std@@PAVObj@@@std@@@2@@std@@XZ 0041e9f0 f i parse.obj
 0001:0001daa0       ?getID@Obj@@UBE?AV?$basic_string@DU?$char_traits@D@std@@V?$allocator@D@2@@std@@XZ 0041eaa0 f i parse.obj
 0001:0001db50       ?getScalar@Obj@@UBENXZ     0041eb50 f i parse.obj
 0001:0001dc00       ?getScalar@ScalarObj@@UBENXZ 0041ec00 f i parse.obj
 0001:0001dc10       ?getString@Obj@@UBE?AV?$basic_string@DU?$char_traits@D@std@@V?$allocator@D@2@@std@@XZ 0041ec10 f i parse.obj
 0001:0001dcc0       ?getString@StringObj@@UBE?AV?$basic_string@DU?$char_traits@D@std@@V?$allocator@D@2@@std@@XZ 0041ecc0 f i parse.obj
 0001:0001dcc0       ?getName@NamedObj@@UBE?AV?$basic_string@DU?$char_traits@D@std@@V?$allocator@D@2@@std@@XZ 0041ecc0 f i parse.obj
 0001:0001dcc0       ?getID@IdObj@@UBE?AV?$basic_string@DU?$char_traits@D@std@@V?$allocator@D@2@@std@@XZ 0041ecc0 f i parse.obj
 0001:0001dd00       ?getTuple@Obj@@UBEABV?$vector@PAVObj@@V?$allocator@PAVObj@@@std@@@std@@XZ 0041ed00 f i parse.obj
 0001:0001ddb0       ?getTuple@TupleObj@@UBEABV?$vector@PAVObj@@V?$allocator@PAVObj@@@std@@@std@@XZ 0041edb0 f i parse.obj
 0001:0001ddb0       ?getDict@DictObj@@UBEABV?$map@V?$basic_string@DU?$char_traits@D@std@@V?$allocator@D@2@@std@@PAVObj@@U?$less@V?$basic_string@DU?$char_traits@D@std@@V?$allocator@D@2@@std@@@2@V?$allocator@U?$pair@$$CBV?$basic_string@DU?$char_traits@D@std@@V?$allocator@D@2@@std@@PAVObj@@@std@@@2@@std@@XZ 0041edb0 f i parse.obj
 0001:0001ddc0       ?getTypeName@BooleanObj@@UBE?AV?$basic_string@DU?$char_traits@D@std@@V?$allocator@D@2@@std@@XZ 0041edc0 f i parse.obj
 0001:0001de00       ?getTypeName@DictObj@@UBE?AV?$basic_string@DU?$char_traits@D@std@@V?$allocator@D@2@@std@@XZ 0041ee00 f i parse.obj
 0001:0001de40       ?getTypeName@IdObj@@UBE?AV?$basic_string@DU?$char_traits@D@std@@V?$allocator@D@2@@std@@XZ 0041ee40 f i parse.obj
 0001:0001de80       ?getTypeName@NamedObj@@UBE?AV?$basic_string@DU?$char_traits@D@std@@V?$allocator@D@2@@std@@XZ 0041ee80 f i parse.obj
 0001:0001dec0       ?getTypeName@Obj@@UBE?AV?$basic_string@DU?$char_traits@D@std@@V?$allocator@D@2@@std@@XZ 0041eec0 f i parse.obj
 0001:0001df00       ?getTypeName@ScalarObj@@UBE?AV?$basic_string@DU?$char_traits@D@std@@V?$allocator@D@2@@std@@XZ 0041ef00 f i parse.obj
 0001:0001df40       ?getTypeName@StringObj@@UBE?AV?$basic_string@DU?$char_traits@D@std@@V?$allocator@D@2@@std@@XZ 0041ef40 f i parse.obj
 0001:0001df80       ?getTypeName@TupleObj@@UBE?AV?$basic_string@DU?$char_traits@D@std@@V?$allocator@D@2@@std@@XZ 0041ef80 f i parse.obj
 0001:0001dfc0       ?insert@?$basic_string@DU?$char_traits@D@std@@V?$allocator@D@2@@std@@QAEAAV12@IABV12@II@Z 0041efc0 f i parse.obj
 0001:0001e0f0       ?printOn@BooleanObj@@UBEXAAV?$basic_ostream@DU?$char_traits@D@std@@@std@@@Z 0041f0f0 f i parse.obj
 0001:0001e120       ?printOn@DictObj@@UBEXAAV?$basic_ostream@DU?$char_traits@D@std@@@std@@@Z 0041f120 f i parse.obj
 0001:0001e1f0       ?printOn@IdObj@@UBEXAAV?$basic_ostream@DU?$char_traits@D@std@@@std@@@Z 0041f1f0 f i parse.obj
 0001:0001e210       ?printOn@NamedObj@@UBEXAAV?$basic_ostream@DU?$char_traits@D@std@@@std@@@Z 0041f210 f i parse.obj
 0001:0001e240       ?printOn@Obj@@UBEXAAV?$basic_ostream@DU?$char_traits@D@std@@@std@@@Z 0041f240 f i parse.obj
 0001:0001e250       ?printOn@ScalarObj@@UBEXAAV?$basic_ostream@DU?$char_traits@D@std@@@std@@@Z 0041f250 f i parse.obj
 0001:0001e270       ?printOn@StringObj@@UBEXAAV?$basic_ostream@DU?$char_traits@D@std@@@std@@@Z 0041f270 f i parse.obj
 0001:0001e2a0       ?printOn@TupleObj@@UBEXAAV?$basic_ostream@DU?$char_traits@D@std@@@std@@@Z 0041f2a0 f i parse.obj
 0001:0001e6a0       ?readFile@@YAPAVObj@@AAV?$basic_istream@DU?$char_traits@D@std@@@std@@@Z 0041f6a0 f   parse.obj
 0001:0001ef00       ??$?HDU?$char_traits@D@std@@V?$allocator@D@1@@std@@YA?AV?$basic_string@DU?$char_traits@D@std@@V?$allocator@D@2@@0@$$QAV10@PBD@Z 0041ff00 f i read.obj
 0001:0001efa0       ??$_Buynode@ABQAVLight@@@?$_List_buy@PAVLight@@V?$allocator@PAVLight@@@std@@@std@@QAEPAU?$_List_node@PAVLight@@PAX@1@PAU21@0ABQAVLight@@@Z 0041ffa0 f i read.obj
 0001:0001efa0       ??$_Buynode@ABQAVGeometry@@@?$_List_buy@PAVGeometry@@V?$allocator@PAVGeometry@@@std@@@std@@QAEPAU?$_List_node@PAVGeometry@@PAX@1@PAU21@0ABQAVGeometry@@@Z 0041ffa0 f i read.obj
 0001:0001efa0       ??$_Buynode@ABQAVTransformNode@@@?$_List_buy@PAVTransformNode@@V?$allocator@PAVTransformNode@@@std@@@std@@QAEPAU?$_List_node@PAVTransformNode@@PAX@1@PAU21@0ABQAVTransformNode@@@Z 0041ffa0 f i read.obj
 0001:0001efc0       ??$_Buynode@ABUpiecewise_construct_t@std@@V?$tuple@ABV?$basic_string@DU?$char_traits@D@std@@V?$allocator@D@2@@std@@@2@V?$tuple@$$$V@2@@?$_Tree_buy@U?$pair@$$CBV?$basic_string@DU?$char_traits@D@std@@V?$allocator@D@2@@std@@PAVObj@@@std@@V?$allocator@U?$pair@$$CBV?$basic_string@DU?$char_traits@D@std@@V?$allocator@D@2@@std@@PAVObj@@@std@@@2@@std@@QAEPAU?$_Tree_node@U?$pair@$$CBV?$basic_string@DU?$char_traits@D@std@@V?$allocator@D@2@@std@@PAVObj@@@std@@PAX@1@ABUpiecewise_construct_t@1@$$QAV?$tuple@ABV?$basic_string@DU?$char_traits@D@std@@V?$allocator@D@2@@std@@@1@$$QAV?$tuple@$$$V@1@@Z 0041ffc0 f i parse.obj
 0001:0001efc0       ??$_Buynode@ABUpiecewise_construct_t@std@@V?$tuple@ABV?$basic_string@DU?$char_traits@D@std@@V?$allocator@D@2@@std@@@2@V?$tuple@$$$V@2@@?$_Tree_buy@U?$pair@$$CBV?$basic_string@DU?$char_traits@D@std@@V?$allocator@D@2@@std@@PAVMaterial@@@std@@V?$allocator@U?$pair@$$CBV?$basic_string@DU?$char_traits@D@std@@V?$allocator@D@2@@std@@PAVMaterial@@@std@@@2@@std@@QAEPAU?$_Tree_node@U?$pair@$$CBV?$basic_string@DU?$char_traits@D@std@@V?$allocator@D@2@@std@@PAVMaterial@@@std@@PAX@1@ABUpiecewise_construct_t@1@$$QAV?$tuple@ABV?$basic_string@DU?$char_traits@D@std@@V?$allocator@D@2@@std@@@1@$$QAV?$tuple@$$$V@1@@Z 0041ffc0 f i read.obj
 0001:0001f070       ??$_Fputc@D@std@@YA_NDPAU_iobuf@@@Z 00420070 f i read.obj
 0001:0001f090       ??$_Insert_hint@AAU?$pair@$$CBV?$basic_string@DU?$char_traits@D@std@@V?$allocator@D@2@@std@@PAVMaterial@@@std@@PAU?$_Tree_node@U?$pair@$$CBV?$basic_string@DU?$char_traits@D@std@@V?$allocator@D@2@@std@@PAVMaterial@@@std@@PAX@2@@?$_Tree@V?$_Tmap_traits@V?$basic_string@DU?$char_traits@D@std@@V?$allocator@D@2@@std@@PAVMaterial@@U?$less@V?$basic_string@DU?$char_traits@D@std@@V?$allocator@D@2@@std@@@2@V?$allocator@U?$pair@$$CBV?$basic_string@DU?$char_traits@D@std@@V?$allocator@D@2@@std@@PAVMaterial@@@std@@@2@$0A@@std@@@std@@IAE?AV?$_Tree_iterator@V?$_Tree_val@U?$_Tree_simple_types@U?$pair@$$CBV?$basic_string@DU?$char_traits@D@std@@V?$allocator@D@2@@std@@PAVMaterial@@@std@@@std@@@std@@@1@V?$_Tree_const_iterator@V?$_Tree_val@U?$_Tree_simple_types@U?$pair@$$CBV?$basic_string@DU?$char_traits@D@std@@V?$allocator@D@2@@std@@PAVMaterial@@@std@@@std@@@std@@@1@AAU?$pair@$$CBV?$basic_string@DU?$char_traits@D@std@@V?$allocator@D@2@@std@@PAVMaterial@@@1@PAU?$_Tree_node@U?$pair@$$CBV?$basic_string@DU?$char_traits@D@std@@V?$allocator@D@2@@std@@PAVMaterial@@@std@@PAX@1@@Z 00420090 f i read.obj
 0001:0001f090       ??$_Insert_hint@AAU?$pair@$$CBV?$basic_string@DU?$char_traits@D@std@@V?$allocator@D@2@@std@@PAVObj@@@std@@PAU?$_Tree_node@U?$pair@$$CBV?$basic_string@DU?$char_traits@D@std@@V?$allocator@D@2@@std@@PAVObj@@@std@@PAX@2@@?$_Tree@V?$_Tmap_traits@V?$basic_string@DU?$char_traits@D@std@@V?$allocator@D@2@@std@@PAVObj@@U?$less@V?$basic_string@DU?$char_traits@D@std@@V?$allocator@D@2@@std@@@2@V?$allocator@U?$pair@$$CBV?$basic_string@DU?$char_traits@D@std@@V?$allocator@D@2@@std@@PAVObj@@@std@@@2@$0A@@std@@@std@@IAE?AV?$_Tree_iterator@V?$_Tree_val@U?$_Tree_simple_types@U?$pair@$$CBV?$basic_string@DU?$char_traits@D@std@@V?$allocator@D@2@@std@@PAVObj@@@std@@@std@@@std@@@1@V?$_Tree_const_iterator@V?$_Tree_val@U?$_Tree_simple_types@U?$pair@$$CBV?$basic_string@DU?$char_traits@D@std@@V?$allocator@D@2@@std@@PAVObj@@@std@@@std@@@std@@@1@AAU?$pair@$$CBV?$basic_string@DU?$char_traits@D@std@@V?$allocator@D@2@@std@@PAVObj@@@1@PAU?$_Tree_node@U?$pair@$$CBV?$basic_string@DU?$char_traits@D@std@@V?$allocator@D@2@@std@@PAVObj@@@std@@PAX@1@@Z 00420090 f i parse.obj
 0001:0001f280       ??$endl@DU?$char_traits@D@std@@@std@@YAAAV?$basic_ostream@DU?$char_traits@D@std@@@0@AAV10@@Z 00420280 f i read.obj
 0001:0001f2b0       ??$ends@DU?$char_traits@D@std@@@std@@YAAAV?$basic_ostream@DU?$char_traits@D@std@@@0@AAV10@@Z 004202b0 f i read.obj
 0001:0001f2d0       ??$use_facet@V?$codecvt@DDH@std@@@std@@YAABV?$codecvt@DDH@0@ABVlocale@0@@Z 004202d0 f i read.obj
 0001:0001f3c0       ??0?$basic_ifstream@DU?$char_traits@D@std@@@std@@QAE@PBDHH@Z 004203c0 f i read.obj
 0001:0001f4d0       ??0Cone@@QAE@PAVScene@@PAVMaterial@@NNN_N@Z 004204d0 f i read.obj
 0001:0001f570       ??0Scene@@QAE@XZ           00420570 f i read.obj
 0001:0001f720       ??0TransformNode@@IAE@PAV0@ABVmat4f@@@Z 00420720 f i read.obj
 0001:0001fb30       ??0Trimesh@@QAE@PAVScene@@PAVMaterial@@PAVTransformNode@@@Z 00420b30 f i read.obj
 0001:0001fbc0       ??0mat4f@@QAE@ABVvec4f@@000@Z 00420bc0 f i read.obj
 0001:0001fc90       ??0ostrstream@std@@QAE@XZ  00420c90 f i read.obj
 0001:0001fd80       ??1?$basic_filebuf@DU?$char_traits@D@std@@@std@@UAE@XZ 00420d80 f i read.obj
 0001:0001fdd0       ??1?$basic_ifstream@DU?$char_traits@D@std@@@std@@UAE@XZ 00420dd0 f i read.obj
 0001:0001fe40       ??1?$list@PAVTransformNode@@V?$allocator@PAVTransformNode@@@std@@@std@@QAE@XZ 00420e40 f i read.obj
 0001:0001fe40       ??1?$list@PAVLight@@V?$allocator@PAVLight@@@std@@@std@@QAE@XZ 00420e40 f i read.obj
 0001:0001fe40       ??1?$list@PAVGeometry@@V?$allocator@PAVGeometry@@@std@@@std@@QAE@XZ 00420e40 f i read.obj
 0001:0001fe80       ??1?$map@V?$basic_string@DU?$char_traits@D@std@@V?$allocator@D@2@@std@@PAVObj@@U?$less@V?$basic_string@DU?$char_traits@D@std@@V?$allocator@D@2@@std@@@2@V?$allocator@U?$pair@$$CBV?$basic_string@DU?$char_traits@D@std@@V?$allocator@D@2@@std@@PAVObj@@@std@@@2@@std@@QAE@XZ 00420e80 f i parse.obj
 0001:0001fe80       ??1?$map@V?$basic_string@DU?$char_traits@D@std@@V?$allocator@D@2@@std@@PAVMaterial@@U?$less@V?$basic_string@DU?$char_traits@D@std@@V?$allocator@D@2@@std@@@2@V?$allocator@U?$pair@$$CBV?$basic_string@DU?$char_traits@D@std@@V?$allocator@D@2@@std@@PAVMaterial@@@std@@@2@@std@@QAE@XZ 00420e80 f i read.obj
 0001:0001feb0       ??1TransformNode@@QAE@XZ   00420eb0 f i read.obj
 0001:0001ff70       ??1TransformRoot@@QAE@XZ   00420f70 f i read.obj
 0001:0001ff80       ??1locale@std@@QAE@XZ      00420f80 f i read.obj
 0001:0001ffa0       ??1ostrstream@std@@UAE@XZ  00420fa0 f i read.obj
 0001:00020010       ??6@YAAAV?$basic_ostream@DU?$char_traits@D@std@@@std@@AAV01@ABVException@@@Z 00421010 f i read.obj
 0001:00020090       ??A?$map@V?$basic_string@DU?$char_traits@D@std@@V?$allocator@D@2@@std@@PAVMaterial@@U?$less@V?$basic_string@DU?$char_traits@D@std@@V?$allocator@D@2@@std@@@2@V?$allocator@U?$pair@$$CBV?$basic_string@DU?$char_traits@D@std@@V?$allocator@D@2@@std@@PAVMaterial@@@std@@@2@@std@@QAEAAPAVMaterial@@ABV?$basic_string@DU?$char_traits@D@std@@V?$allocator@D@2@@1@@Z 00421090 f i read.obj
 0001:00020110       ??D@YA?AVmat4f@@ABV0@0@Z   00421110 f i read.obj
 0001:00020570       ??E?$_Tree_unchecked_const_iterator@V?$_Tree_val@U?$_Tree_simple_types@U?$pair@$$CBV?$basic_string@DU?$char_traits@D@std@@V?$allocator@D@2@@std@@PAVMaterial@@@std@@@std@@@std@@U_Iterator_base0@2@@std@@QAEAAV01@XZ 00421570 f i read.obj
 0001:00020570       ??E?$_Tree_unchecked_const_iterator@V?$_Tree_val@U?$_Tree_simple_types@U?$pair@$$CBV?$basic_string@DU?$char_traits@D@std@@V?$allocator@D@2@@std@@PAVObj@@@std@@@std@@@std@@U_Iterator_base0@2@@std@@QAEAAV01@XZ 00421570 f i parse.obj
 0001:000205c0       ??F?$_Tree_unchecked_const_iterator@V?$_Tree_val@U?$_Tree_simple_types@U?$pair@$$CBV?$basic_string@DU?$char_traits@D@std@@V?$allocator@D@2@@std@@PAVMaterial@@@std@@@std@@@std@@U_Iterator_base0@2@@std@@QAEAAV01@XZ 004215c0 f i read.obj
 0001:000205c0       ??F?$_Tree_unchecked_const_iterator@V?$_Tree_val@U?$_Tree_simple_types@U?$pair@$$CBV?$basic_string@DU?$char_traits@D@std@@V?$allocator@D@2@@std@@PAVObj@@@std@@@std@@@std@@U_Iterator_base0@2@@std@@QAEAAV01@XZ 004215c0 f i parse.obj
 0001:00020620       ??_D?$basic_ifstream@DU?$char_traits@D@std@@@std@@QAEXXZ 00421620 f i read.obj
 0001:00020650       ??_Dostrstream@std@@QAEXXZ 00421650 f i read.obj
 0001:00020675       ??_E?$basic_ifstream@DU?$char_traits@D@std@@@std@@$4PPPPPPPM@A@AEPAXI@Z 00421675 f i read.obj
 0001:0002067d       ??_Eostrstream@std@@$4PPPPPPPM@A@AEPAXI@Z 0042167d f i read.obj
 0001:00020690       ??_G?$basic_filebuf@DU?$char_traits@D@std@@@std@@UAEPAXI@Z 00421690 f i read.obj
 0001:00020690       ??_E?$basic_filebuf@DU?$char_traits@D@std@@@std@@UAEPAXI@Z 00421690 f i read.obj
 0001:000206f0       ??_E?$basic_ifstream@DU?$char_traits@D@std@@@std@@UAEPAXI@Z 004216f0 f i read.obj
 0001:000206f0       ??_G?$basic_ifstream@DU?$char_traits@D@std@@@std@@UAEPAXI@Z 004216f0 f i read.obj
 0001:00020740       ??_EBox@@UAEPAXI@Z         00421740 f i read.obj
 0001:00020740       ??_GTrimeshFace@@UAEPAXI@Z 00421740 f i trimesh.obj
 0001:00020740       ??_ECylinder@@UAEPAXI@Z    00421740 f i read.obj
 0001:00020740       ??_GCone@@UAEPAXI@Z        00421740 f i read.obj
 0001:00020740       ??_ESquare@@UAEPAXI@Z      00421740 f i read.obj
 0001:00020740       ??_ESphere@@UAEPAXI@Z      00421740 f i read.obj
 0001:00020740       ??_ETrimeshFace@@UAEPAXI@Z 00421740 f i trimesh.obj
 0001:00020740       ??_ECone@@UAEPAXI@Z        00421740 f i read.obj
 0001:00020740       ??_GBox@@UAEPAXI@Z         00421740 f i read.obj
 0001:00020740       ??_GCylinder@@UAEPAXI@Z    00421740 f i read.obj
 0001:00020740       ??_GSquare@@UAEPAXI@Z      00421740 f i read.obj
 0001:00020740       ??_EMaterialSceneObject@@UAEPAXI@Z 00421740 f i read.obj
 0001:00020740       ??_GSphere@@UAEPAXI@Z      00421740 f i read.obj
 0001:00020740       ??_GMaterialSceneObject@@UAEPAXI@Z 00421740 f i read.obj
 0001:00020780       ??_EScene@@UAEPAXI@Z       00421780 f i read.obj
 0001:00020780       ??_GScene@@UAEPAXI@Z       00421780 f i read.obj
 0001:000207b0       ??_EDirectionalLight@@UAEPAXI@Z 004217b0 f i read.obj
 0001:000207b0       ??_GSceneElement@@UAEPAXI@Z 004217b0 f i read.obj
 0001:000207b0       ??_EPointLight@@UAEPAXI@Z  004217b0 f i read.obj
 0001:000207b0       ??_GDirectionalLight@@UAEPAXI@Z 004217b0 f i read.obj
 0001:000207b0       ??_GPointLight@@UAEPAXI@Z  004217b0 f i read.obj
 0001:000207b0       ??_ESceneElement@@UAEPAXI@Z 004217b0 f i read.obj
 0001:000207e0       ??_GTrimesh@@UAEPAXI@Z     004217e0 f i read.obj
 0001:000207e0       ??_ETrimesh@@UAEPAXI@Z     004217e0 f i read.obj
 0001:00020810       ??_Gostrstream@std@@UAEPAXI@Z 00421810 f i read.obj
 0001:00020810       ??_Eostrstream@std@@UAEPAXI@Z 00421810 f i read.obj
 0001:00020860       ??_Estrstreambuf@std@@UAEPAXI@Z 00421860 f i read.obj
 0001:00020860       ??_Gstrstreambuf@std@@UAEPAXI@Z 00421860 f i read.obj
 0001:000208c0       ?ComputeBoundingBox@Geometry@@UAEXXZ 004218c0 f i read.obj
 0001:000211b0       ?ComputeLocalBoundingBox@Box@@UAE?AVBoundingBox@@XZ 004221b0 f i read.obj
 0001:000211f0       ?ComputeLocalBoundingBox@Cone@@UAE?AVBoundingBox@@XZ 004221f0 f i read.obj
 0001:00021270       ?ComputeLocalBoundingBox@Cylinder@@UAE?AVBoundingBox@@XZ 00422270 f i read.obj
 0001:000212b0       ?ComputeLocalBoundingBox@Geometry@@UAE?AVBoundingBox@@XZ 004222b0 f i read.obj
 0001:000212d0       ?ComputeLocalBoundingBox@Sphere@@UAE?AVBoundingBox@@XZ 004222d0 f i read.obj
 0001:00021310       ?ComputeLocalBoundingBox@Square@@UAE?AVBoundingBox@@XZ 00422310 f i read.obj
 0001:00021360       ?_Buyheadnode@?$_Tree_alloc@$0A@U?$_Tree_base_types@U?$pair@$$CBV?$basic_string@DU?$char_traits@D@std@@V?$allocator@D@2@@std@@PAVMaterial@@@std@@V?$allocator@U?$pair@$$CBV?$basic_string@DU?$char_traits@D@std@@V?$allocator@D@2@@std@@PAVMaterial@@@std@@@2@@std@@@std@@QAEPAU?$_Tree_node@U?$pair@$$CBV?$basic_string@DU?$char_traits@D@std@@V?$allocator@D@2@@std@@PAVMaterial@@@std@@PAX@2@XZ 00422360 f i read.obj
 0001:00021360       ?_Buyheadnode@?$_Tree_alloc@$0A@U?$_Tree_base_types@U?$pair@$$CBV?$basic_string@DU?$char_traits@D@std@@V?$allocator@D@2@@std@@PAVObj@@@std@@V?$allocator@U?$pair@$$CBV?$basic_string@DU?$char_traits@D@std@@V?$allocator@D@2@@std@@PAVObj@@@std@@@2@@std@@@std@@QAEPAU?$_Tree_node@U?$pair@$$CBV?$basic_string@DU?$char_traits@D@std@@V?$allocator@D@2@@std@@PAVObj@@@std@@PAX@2@XZ 00422360 f i parse.obj
 0001:00021390       ?_Buynode0@?$_List_alloc@$0A@U?$_List_base_types@PAVLight@@V?$allocator@PAVLight@@@std@@@std@@@std@@QAEPAU?$_List_node@PAVLight@@PAX@2@PAU32@0@Z 00422390 f i read.obj
 0001:00021390       ?_Buynode0@?$_List_alloc@$0A@U?$_List_base_types@PAVGeometry@@V?$allocator@PAVGeometry@@@std@@@std@@@std@@QAEPAU?$_List_node@PAVGeometry@@PAX@2@PAU32@0@Z 00422390 f i read.obj
 0001:00021390       ?_Buynode0@?$_List_alloc@$0A@U?$_List_base_types@PAVTransformNode@@V?$allocator@PAVTransformNode@@@std@@@std@@@std@@QAEPAU?$_List_node@PAVTransformNode@@PAX@2@PAU32@0@Z 00422390 f i read.obj
 0001:000213d0       ?_Buynode0@?$_Tree_buy@U?$pair@$$CBV?$basic_string@DU?$char_traits@D@std@@V?$allocator@D@2@@std@@PAVObj@@@std@@V?$allocator@U?$pair@$$CBV?$basic_string@DU?$char_traits@D@std@@V?$allocator@D@2@@std@@PAVObj@@@std@@@2@@std@@QAEPAU?$_Tree_node@U?$pair@$$CBV?$basic_string@DU?$char_traits@D@std@@V?$allocator@D@2@@std@@PAVObj@@@std@@PAX@2@XZ 004223d0 f i parse.obj
 0001:000213d0       ?_Buynode0@?$_Tree_buy@U?$pair@$$CBV?$basic_string@DU?$char_traits@D@std@@V?$allocator@D@2@@std@@PAVMaterial@@@std@@V?$allocator@U?$pair@$$CBV?$basic_string@DU?$char_traits@D@std@@V?$allocator@D@2@@std@@PAVMaterial@@@std@@@2@@std@@QAEPAU?$_Tree_node@U?$pair@$$CBV?$basic_string@DU?$char_traits@D@std@@V?$allocator@D@2@@std@@PAVMaterial@@@std@@PAX@2@XZ 004223d0 f i read.obj
 0001:00021410       ?_Endwrite@?$basic_filebuf@DU?$char_traits@D@std@@@std@@IAE_NXZ 00422410 f i read.obj
 0001:00021560       ?_Erase@?$_Tree@V?$_Tmap_traits@V?$basic_string@DU?$char_traits@D@std@@V?$allocator@D@2@@std@@PAVMaterial@@U?$less@V?$basic_string@DU?$char_traits@D@std@@V?$allocator@D@2@@std@@@2@V?$allocator@U?$pair@$$CBV?$basic_string@DU?$char_traits@D@std@@V?$allocator@D@2@@std@@PAVMaterial@@@std@@@2@$0A@@std@@@std@@IAEXPAU?$_Tree_node@U?$pair@$$CBV?$basic_string@DU?$char_traits@D@std@@V?$allocator@D@2@@std@@PAVMaterial@@@std@@PAX@2@@Z 00422560 f i read.obj
 0001:00021560       ?_Erase@?$_Tree@V?$_Tmap_traits@V?$basic_string@DU?$char_traits@D@std@@V?$allocator@D@2@@std@@PAVObj@@U?$less@V?$basic_string@DU?$char_traits@D@std@@V?$allocator@D@2@@std@@@2@V?$allocator@U?$pair@$$CBV?$basic_string@DU?$char_traits@D@std@@V?$allocator@D@2@@std@@PAVObj@@@std@@@2@$0A@@std@@@std@@IAEXPAU?$_Tree_node@U?$pair@$$CBV?$basic_string@DU?$char_traits@D@std@@V?$allocator@D@2@@std@@PAVObj@@@std@@PAX@2@@Z 00422560 f i parse.obj
 0001:000215c0       ?_Lbound@?$_Tree@V?$_Tmap_traits@V?$basic_string@DU?$char_traits@D@std@@V?$allocator@D@2@@std@@PAVObj@@U?$less@V?$basic_string@DU?$char_traits@D@std@@V?$allocator@D@2@@std@@@2@V?$allocator@U?$pair@$$CBV?$basic_string@DU?$char_traits@D@std@@V?$allocator@D@2@@std@@PAVObj@@@std@@@2@$0A@@std@@@std@@IAEPAU?$_Tree_node@U?$pair@$$CBV?$basic_string@DU?$char_traits@D@std@@V?$allocator@D@2@@std@@PAVObj@@@std@@PAX@2@ABV?$basic_string@DU?$char_traits@D@std@@V?$allocator@D@2@@2@@Z 004225c0 f i parse.obj
 0001:000215c0       ?_Lbound@?$_Tree@V?$_Tmap_traits@V?$basic_string@DU?$char_traits@D@std@@V?$allocator@D@2@@std@@PAVMaterial@@U?$less@V?$basic_string@DU?$char_traits@D@std@@V?$allocator@D@2@@std@@@2@V?$allocator@U?$pair@$$CBV?$basic_string@DU?$char_traits@D@std@@V?$allocator@D@2@@std@@PAVMaterial@@@std@@@2@$0A@@std@@@std@@IBEPAU?$_Tree_node@U?$pair@$$CBV?$basic_string@DU?$char_traits@D@std@@V?$allocator@D@2@@std@@PAVMaterial@@@std@@PAX@2@ABV?$basic_string@DU?$char_traits@D@std@@V?$allocator@D@2@@2@@Z 004225c0 f i read.obj
 0001:000215c0       ?_Lbound@?$_Tree@V?$_Tmap_traits@V?$basic_string@DU?$char_traits@D@std@@V?$allocator@D@2@@std@@PAVObj@@U?$less@V?$basic_string@DU?$char_traits@D@std@@V?$allocator@D@2@@std@@@2@V?$allocator@U?$pair@$$CBV?$basic_string@DU?$char_traits@D@std@@V?$allocator@D@2@@std@@PAVObj@@@std@@@2@$0A@@std@@@std@@IBEPAU?$_Tree_node@U?$pair@$$CBV?$basic_string@DU?$char_traits@D@std@@V?$allocator@D@2@@std@@PAVObj@@@std@@PAX@2@ABV?$basic_string@DU?$char_traits@D@std@@V?$allocator@D@2@@2@@Z 004225c0 f i read.obj
 0001:000215c0       ?_Lbound@?$_Tree@V?$_Tmap_traits@V?$basic_string@DU?$char_traits@D@std@@V?$allocator@D@2@@std@@PAVMaterial@@U?$less@V?$basic_string@DU?$char_traits@D@std@@V?$allocator@D@2@@std@@@2@V?$allocator@U?$pair@$$CBV?$basic_string@DU?$char_traits@D@std@@V?$allocator@D@2@@std@@PAVMaterial@@@std@@@2@$0A@@std@@@std@@IAEPAU?$_Tree_node@U?$pair@$$CBV?$basic_string@DU?$char_traits@D@std@@V?$allocator@D@2@@std@@PAVMaterial@@@std@@PAX@2@ABV?$basic_string@DU?$char_traits@D@std@@V?$allocator@D@2@@2@@Z 004225c0 f i read.obj
 0001:000216a0       ?_Lock@?$basic_filebuf@DU?$char_traits@D@std@@@std@@UAEXXZ 004226a0 f i read.obj
 0001:000216b0       ?_Lrotate@?$_Tree@V?$_Tmap_traits@V?$basic_string@DU?$char_traits@D@std@@V?$allocator@D@2@@std@@PAVObj@@U?$less@V?$basic_string@DU?$char_traits@D@std@@V?$allocator@D@2@@std@@@2@V?$allocator@U?$pair@$$CBV?$basic_string@DU?$char_traits@D@std@@V?$allocator@D@2@@std@@PAVObj@@@std@@@2@$0A@@std@@@std@@IAEXPAU?$_Tree_node@U?$pair@$$CBV?$basic_string@DU?$char_traits@D@std@@V?$allocator@D@2@@std@@PAVObj@@@std@@PAX@2@@Z 004226b0 f i parse.obj
 0001:000216b0       ?_Lrotate@?$_Tree@V?$_Tmap_traits@V?$basic_string@DU?$char_traits@D@std@@V?$allocator@D@2@@std@@PAVMaterial@@U?$less@V?$basic_string@DU?$char_traits@D@std@@V?$allocator@D@2@@std@@@2@V?$allocator@U?$pair@$$CBV?$basic_string@DU?$char_traits@D@std@@V?$allocator@D@2@@std@@PAVMaterial@@@std@@@2@$0A@@std@@@std@@IAEXPAU?$_Tree_node@U?$pair@$$CBV?$basic_string@DU?$char_traits@D@std@@V?$allocator@D@2@@std@@PAVMaterial@@@std@@PAX@2@@Z 004226b0 f i read.obj
 0001:00021710       ?_Reset_back@?$basic_filebuf@DU?$char_traits@D@std@@@std@@AAEXXZ 00422710 f i read.obj
 0001:00021740       ?_Rrotate@?$_Tree@V?$_Tmap_traits@V?$basic_string@DU?$char_traits@D@std@@V?$allocator@D@2@@std@@PAVObj@@U?$less@V?$basic_string@DU?$char_traits@D@std@@V?$allocator@D@2@@std@@@2@V?$allocator@U?$pair@$$CBV?$basic_string@DU?$char_traits@D@std@@V?$allocator@D@2@@std@@PAVObj@@@std@@@2@$0A@@std@@@std@@IAEXPAU?$_Tree_node@U?$pair@$$CBV?$basic_string@DU?$char_traits@D@std@@V?$allocator@D@2@@std@@PAVObj@@@std@@PAX@2@@Z 00422740 f i parse.obj
 0001:00021740       ?_Rrotate@?$_Tree@V?$_Tmap_traits@V?$basic_string@DU?$char_traits@D@std@@V?$allocator@D@2@@std@@PAVMaterial@@U?$less@V?$basic_string@DU?$char_traits@D@std@@V?$allocator@D@2@@std@@@2@V?$allocator@U?$pair@$$CBV?$basic_string@DU?$char_traits@D@std@@V?$allocator@D@2@@std@@PAVMaterial@@@std@@@2@$0A@@std@@@std@@IAEXPAU?$_Tree_node@U?$pair@$$CBV?$basic_string@DU?$char_traits@D@std@@V?$allocator@D@2@@std@@PAVMaterial@@@std@@PAX@2@@Z 00422740 f i read.obj
 0001:000217a0       ?_Set_back@?$basic_filebuf@DU?$char_traits@D@std@@@std@@AAEXXZ 004227a0 f i read.obj
 0001:000217e0       ??1?$vector@PAVObj@@V?$allocator@PAVObj@@@std@@@std@@QAE@XZ 004227e0 f i parse.obj
 0001:000217e0       ?_Tidy@?$vector@Vvec3f@@V?$allocator@Vvec3f@@@std@@@std@@IAEXXZ 004227e0 f i read.obj
 0001:00021810       ?_Unlock@?$basic_filebuf@DU?$char_traits@D@std@@@std@@UAEXXZ 00422810 f i read.obj
 0001:00021820       ?add@Scene@@QAEXPAVGeometry@@@Z 00422820 f i read.obj
 0001:00021880       ?add@Scene@@QAEXPAVLight@@@Z 00422880 f i read.obj
 0001:000218d0       ?append@?$basic_string@DU?$char_traits@D@std@@V?$allocator@D@2@@std@@QAEAAV12@PBDI@Z 004228d0 f i read.obj
 0001:000219c0       ?close@?$basic_filebuf@DU?$char_traits@D@std@@@std@@QAEPAV12@XZ 004229c0 f i read.obj
 0001:00021a20       ?createChild@TransformNode@@QAEPAV1@ABVmat4f@@@Z 00422a20 f i read.obj
 0001:00021ae0       ?erase@?$_Tree@V?$_Tmap_traits@V?$basic_string@DU?$char_traits@D@std@@V?$allocator@D@2@@std@@PAVObj@@U?$less@V?$basic_string@DU?$char_traits@D@std@@V?$allocator@D@2@@std@@@2@V?$allocator@U?$pair@$$CBV?$basic_string@DU?$char_traits@D@std@@V?$allocator@D@2@@std@@PAVObj@@@std@@@2@$0A@@std@@@std@@QAE?AV?$_Tree_iterator@V?$_Tree_val@U?$_Tree_simple_types@U?$pair@$$CBV?$basic_string@DU?$char_traits@D@std@@V?$allocator@D@2@@std@@PAVObj@@@std@@@std@@@std@@@2@V?$_Tree_const_iterator@V?$_Tree_val@U?$_Tree_simple_types@U?$pair@$$CBV?$basic_string@DU?$char_traits@D@std@@V?$allocator@D@2@@std@@PAVObj@@@std@@@std@@@std@@@2@0@Z 00422ae0 f i parse.obj
 0001:00021ae0       ?erase@?$_Tree@V?$_Tmap_traits@V?$basic_string@DU?$char_traits@D@std@@V?$allocator@D@2@@std@@PAVMaterial@@U?$less@V?$basic_string@DU?$char_traits@D@std@@V?$allocator@D@2@@std@@@2@V?$allocator@U?$pair@$$CBV?$basic_string@DU?$char_traits@D@std@@V?$allocator@D@2@@std@@PAVMaterial@@@std@@@2@$0A@@std@@@std@@QAE?AV?$_Tree_iterator@V?$_Tree_val@U?$_Tree_simple_types@U?$pair@$$CBV?$basic_string@DU?$char_traits@D@std@@V?$allocator@D@2@@std@@PAVMaterial@@@std@@@std@@@std@@@2@V?$_Tree_const_iterator@V?$_Tree_val@U?$_Tree_simple_types@U?$pair@$$CBV?$basic_string@DU?$char_traits@D@std@@V?$allocator@D@2@@std@@PAVMaterial@@@std@@@std@@@std@@@2@0@Z 00422ae0 f i read.obj
 0001:00021ba0       ?find@?$_Tree@V?$_Tmap_traits@V?$basic_string@DU?$char_traits@D@std@@V?$allocator@D@2@@std@@PAVMaterial@@U?$less@V?$basic_string@DU?$char_traits@D@std@@V?$allocator@D@2@@std@@@2@V?$allocator@U?$pair@$$CBV?$basic_string@DU?$char_traits@D@std@@V?$allocator@D@2@@std@@PAVMaterial@@@std@@@2@$0A@@std@@@std@@QBE?AV?$_Tree_const_iterator@V?$_Tree_val@U?$_Tree_simple_types@U?$pair@$$CBV?$basic_string@DU?$char_traits@D@std@@V?$allocator@D@2@@std@@PAVMaterial@@@std@@@std@@@std@@@2@ABV?$basic_string@DU?$char_traits@D@std@@V?$allocator@D@2@@2@@Z 00422ba0 f i read.obj
 0001:00021ba0       ?find@?$_Tree@V?$_Tmap_traits@V?$basic_string@DU?$char_traits@D@std@@V?$allocator@D@2@@std@@PAVObj@@U?$less@V?$basic_string@DU?$char_traits@D@std@@V?$allocator@D@2@@std@@@2@V?$allocator@U?$pair@$$CBV?$basic_string@DU?$char_traits@D@std@@V?$allocator@D@2@@std@@PAVObj@@@std@@@2@$0A@@std@@@std@@QBE?AV?$_Tree_const_iterator@V?$_Tree_val@U?$_Tree_simple_types@U?$pair@$$CBV?$basic_string@DU?$char_traits@D@std@@V?$allocator@D@2@@std@@PAVObj@@@std@@@std@@@std@@@2@ABV?$basic_string@DU?$char_traits@D@std@@V?$allocator@D@2@@2@@Z 00422ba0 f i read.obj
 0001:00022190       ?getMaterial@MaterialSceneObject@@UBEABVMaterial@@XZ 00423190 f i read.obj
 0001:000221a0       ?getMsg@Exception@@QBE?AV?$basic_string@DU?$char_traits@D@std@@V?$allocator@D@2@@std@@XZ 004231a0 f i read.obj
 0001:000221e0       ?hasBoundingBoxCapability@Cylinder@@UBE_NXZ 004231e0 f i read.obj
 0001:000221e0       ?hasBoundingBoxCapability@Box@@UBE_NXZ 004231e0 f i read.obj
 0001:000221e0       ?hasBoundingBoxCapability@Square@@UBE_NXZ 004231e0 f i read.obj
 0001:000221e0       ?hasBoundingBoxCapability@Cone@@UBE_NXZ 004231e0 f i read.obj
 0001:000221e0       ?hasBoundingBoxCapability@TrimeshFace@@UBE_NXZ 004231e0 f i trimesh.obj
 0001:000221e0       ?hasBoundingBoxCapability@Sphere@@UBE_NXZ 004231e0 f i read.obj
 0001:00022270       ?imbue@?$basic_filebuf@DU?$char_traits@D@std@@@std@@MAEXABVlocale@2@@Z 00423270 f i read.obj
 0001:00022350       ?open@?$basic_filebuf@DU?$char_traits@D@std@@@std@@QAEPAV12@PBDHH@Z 00423350 f i read.obj
 0001:00022460       ?overflow@?$basic_filebuf@DU?$char_traits@D@std@@@std@@MAEHH@Z 00423460 f i read.obj
 0001:00022650       ?overflow@strstreambuf@std@@MAEHH@Z 00423650 f i read.obj
 0001:00022800       ?pbackfail@?$basic_filebuf@DU?$char_traits@D@std@@@std@@MAEHH@Z 00423800 f i read.obj
 0001:00022890       ?pbackfail@strstreambuf@std@@MAEHH@Z 00423890 f i read.obj
 0001:00025fb0       ?readScene@@YAPAVScene@@AAV?$basic_istream@DU?$char_traits@D@std@@@std@@@Z 00426fb0 f   read.obj
 0001:00026250       ?readScene@@YAPAVScene@@ABV?$basic_string@DU?$char_traits@D@std@@V?$allocator@D@2@@std@@@Z 00427250 f   read.obj
 0001:000263c0       ?rotate@mat4f@@SA?AV1@ABVvec3f@@N@Z 004273c0 f i read.obj
 0001:000265d0       ?seekoff@?$basic_filebuf@DU?$char_traits@D@std@@@std@@MAE?AV?$fpos@H@2@_JHH@Z 004275d0 f i read.obj
 0001:000266d0       ?seekoff@strstreambuf@std@@MAE?AV?$fpos@H@2@_JHH@Z 004276d0 f i read.obj
 0001:00026830       ?seekpos@?$basic_filebuf@DU?$char_traits@D@std@@@std@@MAE?AV?$fpos@H@2@V32@H@Z 00427830 f i read.obj
 0001:00026910       ?seekpos@strstreambuf@std@@MAE?AV?$fpos@H@2@V32@H@Z 00427910 f i read.obj
 0001:00026a00       ?setMaterial@MaterialSceneObject@@UAEXPAVMaterial@@@Z 00427a00 f i read.obj
 0001:00026a10       ?setbuf@?$basic_filebuf@DU?$char_traits@D@std@@@std@@MAEPAV?$basic_streambuf@DU?$char_traits@D@std@@@2@PAD_J@Z 00427a10 f i read.obj
 0001:00026aa0       ?str@ostrstream@std@@QAEPADXZ 00427aa0 f i read.obj
 0001:00026ae0       ?sync@?$basic_filebuf@DU?$char_traits@D@std@@@std@@MAEHXZ 00427ae0 f i read.obj
 0001:00026b80       ?uflow@?$basic_filebuf@DU?$char_traits@D@std@@@std@@MAEHXZ 00427b80 f i read.obj
 0001:00026d70       ?underflow@?$basic_filebuf@DU?$char_traits@D@std@@@std@@MAEHXZ 00427d70 f i read.obj
 0001:00026db0       ?underflow@strstreambuf@std@@MAEHXZ 00427db0 f i read.obj
 0001:00026f80       ?inverse@mat3f@@QBE?AV1@XZ 00427f80 f   vecmath.obj
 0001:00027370       ?inverse@mat4f@@QBE?AV1@XZ 00428370 f   vecmath.obj
 0001:000277f0       ??0Camera@@QAE@XZ          004287f0 f   camera.obj
 0001:00027890       ?rayThrough@Camera@@QAEXNNAAVray@@@Z 00428890 f   camera.obj
 0001:000279b0       ?setAspectRatio@Camera@@QAEXN@Z 004289b0 f   camera.obj
 0001:00027b50       ?setEye@Camera@@QAEXABVvec3f@@@Z 00428b50 f   camera.obj
 0001:00027b80       ?setFOV@Camera@@QAEXN@Z    00428b80 f   camera.obj
 0001:00027d40       ?setLook@Camera@@QAEXABVvec3f@@0@Z 00428d40 f   camera.obj
 0001:00027f90       ?setLook@Camera@@QAEXNNNN@Z 00428f90 f   camera.obj
 0001:00028260       ?distanceAttenuation@DirectionalLight@@UBENABVvec3f@@@Z 00429260 f   light.obj
 0001:00028270       ?distanceAttenuation@PointLight@@UBENABVvec3f@@@Z 00429270 f   light.obj
 0001:00028340       ?getColor@DirectionalLight@@UBE?AVvec3f@@ABV2@@Z 00429340 f   light.obj
 0001:00028340       ?getColor@PointLight@@UBE?AVvec3f@@ABV2@@Z 00429340 f   light.obj
 0001:00028360       ?getDirection@DirectionalLight@@UBE?AVvec3f@@ABV2@@Z 00429360 f   light.obj
 0001:00028390       ?getDirection@PointLight@@UBE?AVvec3f@@ABV2@@Z 00429390 f   light.obj
 0001:00028430       ?shadowAttenuation@DirectionalLight@@UBE?AVvec3f@@ABV2@@Z 00429430 f   light.obj
 0001:00028450       ?shadowAttenuation@PointLight@@UBE?AVvec3f@@ABV2@@Z 00429450 f   light.obj
 0001:00028630       ?shade@Material@@UBE?AVvec3f@@PAVScene@@ABVray@@ABVisect@@@Z 00429630 f   material.obj
 0001:00028a40       ?getMaterial@isect@@QBEABVMaterial@@XZ 00429a40 f   ray.obj
 0001:00028a50       ??0Material@@QAE@ABV0@@Z   00429a50 f i scene.obj
 0001:00028b50       ??1Scene@@UAE@XZ           00429b50 f   scene.obj
 0001:00028d60       ??4Material@@QAEAAV0@ABV0@@Z 00429d60 f i scene.obj
 0001:00028e60       ??4isect@@QAEAAV0@ABV0@@Z  00429e60 f i scene.obj
 0001:00028f00       ?hasBoundingBoxCapability@Geometry@@UBE_NXZ 00429f00 f   scene.obj
 0001:00028f10       ?initScene@Scene@@QAEXXZ   00429f10 f   scene.obj
 0001:00029100       ?intersect@Geometry@@UBE_NABVray@@AAVisect@@@Z 0042a100 f   scene.obj
 0001:00029450       ?intersect@Scene@@QBE_NABVray@@AAVisect@@@Z 0042a450 f   scene.obj
 0001:000297e0       ?intersectLocal@Geometry@@UBE_NABVray@@AAVisect@@@Z 0042a7e0 f   scene.obj
 0001:000297e0       ?intersectLocal@Box@@UBE_NABVray@@AAVisect@@@Z 0042a7e0 f   Box.obj
 0001:000297f0       ?intersectBody@Cone@@QBE_NABVray@@AAVisect@@@Z 0042a7f0 f   Cone.obj
 0001:00029b60       ?intersectCaps@Cone@@QBE_NABVray@@AAVisect@@@Z 0042ab60 f   Cone.obj
 0001:00029d00       ?intersectLocal@Cone@@UBE_NABVray@@AAVisect@@@Z 0042ad00 f   Cone.obj
 0001:00029dd0       ?intersectBody@Cylinder@@QBE_NABVray@@AAVisect@@@Z 0042add0 f   Cylinder.obj
 0001:0002a0d0       ?intersectCaps@Cylinder@@QBE_NABVray@@AAVisect@@@Z 0042b0d0 f   Cylinder.obj
 0001:0002a220       ?intersectLocal@Cylinder@@UBE_NABVray@@AAVisect@@@Z 0042b220 f   Cylinder.obj
 0001:0002a2f0       ?intersectLocal@Sphere@@UBE_NABVray@@AAVisect@@@Z 0042b2f0 f   Sphere.obj
 0001:0002a4e0       ?intersectLocal@Square@@UBE_NABVray@@AAVisect@@@Z 0042b4e0 f   Square.obj
 0001:0002a5b0       ??$_Uninit_def_fill_n@PAVvec3f@@IV?$allocator@Vvec3f@@@std@@V1@@std@@YAXPAVvec3f@@IAAU?$_Wrap_alloc@V?$allocator@Vvec3f@@@std@@@0@0U_Nonscalar_ptr_iterator_tag@0@@Z 0042b5b0 f i trimesh.obj
 0001:0002a5e0       ??$_Uninit_move@PAVvec3f@@PAV1@V?$allocator@Vvec3f@@@std@@V1@@std@@YAPAVvec3f@@PAV1@00AAU?$_Wrap_alloc@V?$allocator@Vvec3f@@@std@@@0@0U_Nonscalar_ptr_iterator_tag@0@@Z 0042b5e0 f i trimesh.obj
 0001:0002a620       ??1Trimesh@@UAE@XZ         0042b620 f   trimesh.obj
 0001:0002a700       ??D@YA?AVMaterial@@NV0@@Z  0042b700 f i trimesh.obj
 0001:0002a8a0       ??YMaterial@@QAEAAV0@ABV0@@Z 0042b8a0 f i trimesh.obj
 0001:0002aa10       ?ComputeLocalBoundingBox@TrimeshFace@@UAE?AVBoundingBox@@XZ 0042ba10 f i trimesh.obj
 0001:0002aba0       ?_Reallocate@?$vector@Vvec3f@@V?$allocator@Vvec3f@@@std@@@std@@IAEXI@Z 0042bba0 f i trimesh.obj
 0001:0002ac90       ?_Reserve@?$vector@Vvec3f@@V?$allocator@Vvec3f@@@std@@@std@@IAEXI@Z 0042bc90 f i trimesh.obj
 0001:0002ad40       ?addFace@Trimesh@@QAE_NHHH@Z 0042bd40 f   trimesh.obj
 0001:0002ae60       ?addMaterial@Trimesh@@QAEXPAVMaterial@@@Z 0042be60 f   trimesh.obj
 0001:0002ae80       ?addNormal@Trimesh@@QAEXABVvec3f@@@Z 0042be80 f   trimesh.obj
 0001:0002ae90       ?addVertex@Trimesh@@QAEXABVvec3f@@@Z 0042be90 f   trimesh.obj
 0001:0002aea0       ?doubleCheck@Trimesh@@QAEPADXZ 0042bea0 f   trimesh.obj
 0001:0002af40       ?generateNormals@Trimesh@@QAEXXZ 0042bf40 f   trimesh.obj
 0001:0002b1e0       ?intersectLocal@TrimeshFace@@UBE_NABVray@@AAVisect@@@Z 0042c1e0 f   trimesh.obj
 0001:0002b930       ?push_back@?$vector@PAVMaterial@@V?$allocator@PAVMaterial@@@std@@@std@@QAEXABQAVMaterial@@@Z 0042c930 f i trimesh.obj
 0001:0002b930       ?push_back@?$vector@PAVTrimeshFace@@V?$allocator@PAVTrimeshFace@@@std@@@std@@QAEXABQAVTrimeshFace@@@Z 0042c930 f i trimesh.obj
 0001:0002b9a0       ?push_back@?$vector@Vvec3f@@V?$allocator@Vvec3f@@@std@@@std@@QAEXABVvec3f@@@Z 0042c9a0 f i trimesh.obj
 0001:0002ba50       ?resize@?$vector@Vvec3f@@V?$allocator@Vvec3f@@@std@@@std@@QAEXI@Z 0042ca50 f i trimesh.obj
 0001:0002bb30       ___WSAFDIsSet@8            0042cb30 f   wsock32:WSOCK32.dll
 0001:0002bb36       _select@20                 0042cb36 f   wsock32:WSOCK32.dll
 0001:0002bb3c       __purecall                 0042cb3c f   MSVCRT:MSVCR120.dll
 0001:0002bb42       ??2@YAPAXI@Z               0042cb42 f   MSVCRT:MSVCR120.dll
 0001:0002bb48       ??3@YAXPAX@Z               0042cb48 f   MSVCRT:MSVCR120.dll
 0001:0002bb4e       ___atonexitinit            0042cb4e f   MSVCRT:atonexit.obj
 0001:0002bb8a       __onexit                   0042cb8a f   MSVCRT:atonexit.obj
 0001:0002bc33       _atexit                    0042cc33 f   MSVCRT:atonexit.obj
 0001:0002bc48       @__security_check_cookie@4 0042cc48 f   MSVCRT:secchk.obj
 0001:0002bc58       __CxxThrowException@8      0042cc58 f   MSVCRT:MSVCR120.dll
 0001:0002bc5e       ___CxxFrameHandler3        0042cc5e f   MSVCRT:MSVCR120.dll
 0001:0002bc64       _memcpy                    0042cc64 f   MSVCRT:MSVCR120.dll
 0001:0002bc6a       ??_Etype_info@@UAEPAXI@Z   0042cc6a f i MSVCRT:ti_inst.obj
 0001:0002bcc0       ??_V@YAXPAX@Z              0042ccc0 f   MSVCRT:MSVCR120.dll
 0001:0002bcc6       ??_U@YAPAXI@Z              0042ccc6 f   MSVCRT:MSVCR120.dll
 0001:0002bccc       __libm_sse2_sqrt_precise   0042cccc f   MSVCRT:MSVCR120.dll
 0001:0002bcd2       _memset                    0042ccd2 f   MSVCRT:MSVCR120.dll
 0001:0002bcd8       ___raise_securityfailure   0042ccd8 f   MSVCRT:gs_report.obj
 0001:0002bd15       ___report_gsfailure        0042cd15 f   MSVCRT:gs_report.obj
 0001:0002be10       ___report_rangecheckfailure 0042ce10 f   MSVCRT:gs_report.obj
 0001:0002be1c       ___report_securityfailure  0042ce1c f   MSVCRT:gs_report.obj
 0001:0002beec       ??0bad_cast@std@@QAE@ABV01@@Z 0042ceec f   MSVCRT:MSVCR120.dll
 0001:0002bef2       ??0exception@std@@QAE@ABV01@@Z 0042cef2 f   MSVCRT:MSVCR120.dll
 0001:0002bef8       ??1bad_cast@std@@UAE@XZ    0042cef8 f   MSVCRT:MSVCR120.dll
 0001:0002befe       __libm_sse2_cos_precise    0042cefe f   MSVCRT:MSVCR120.dll
 0001:0002bf04       __libm_sse2_sin_precise    0042cf04 f   MSVCRT:MSVCR120.dll
 0001:0002bf0a       __libm_sse2_tan_precise    0042cf0a f   MSVCRT:MSVCR120.dll
 0001:0002bf10       __libm_sse2_pow_precise    0042cf10 f   MSVCRT:MSVCR120.dll
 0001:0002c01a       _WinMainCRTStartup         0042d01a f   MSVCRT:crtexew.obj
 0001:0002c1d8       ___CxxFrameHandler         0042d1d8 f   MSVCRT:MSVCR120.dll
 0001:0002c1de       _strcmp                    0042d1de f   MSVCRT:MSVCR120.dll
 0001:0002c1e4       _fabs                      0042d1e4 f   MSVCRT:MSVCR120.dll
 0001:0002c1ea       __ftol                     0042d1ea f   MSVCRT:MSVCR120.dll
 0001:0002c1f0       _strcpy                    0042d1f0 f   MSVCRT:MSVCR120.dll
 0001:0002c1f6       _strlen                    0042d1f6 f   MSVCRT:MSVCR120.dll
 0001:0002c1fc       _abs                       0042d1fc f   MSVCRT:MSVCR120.dll
 0001:0002c202       __lock                     0042d202 f   MSVCRT:MSVCR120.dll
 0001:0002c208       __unlock                   0042d208 f   MSVCRT:MSVCR120.dll
 0001:0002c20e       ___dllonexit               0042d20e f   MSVCRT:MSVCR120.dll
 0001:0002c220       __SEH_prolog4              0042d220 f   MSVCRT:sehprolg4.obj
 0001:0002c265       __SEH_epilog4              0042d265 f   MSVCRT:sehprolg4.obj
 0001:0002c279       __except_handler4          0042d279 f   MSVCRT:chandler4gs.obj
 0001:0002c29c       ??_M@YGXPAXIHP6EX0@Z@Z     0042d29c f   MSVCRT:ehvecdtr.obj
 0001:0002c30b       ?__ArrayUnwind@@YGXPAXIHP6EX0@Z@Z 0042d30b f   MSVCRT:ehvecdtr.obj
 0001:0002c36a       ??1type_info@@UAE@XZ       0042d36a f   MSVCRT:MSVCR120.dll
 0001:0002c370       __crt_debugger_hook        0042d370 f   MSVCRT:MSVCR120.dll
 0001:0002c376       ___crtUnhandledException   0042d376 f   MSVCRT:MSVCR120.dll
 0001:0002c37c       ___crtTerminateProcess     0042d37c f   MSVCRT:MSVCR120.dll
 0001:0002c382       ?__CxxUnhandledExceptionFilter@@YGJPAU_EXCEPTION_POINTERS@@@Z 0042d382 f   MSVCRT:unhandld.obj
 0001:0002c3c3       ___CxxSetUnhandledExceptionFilter 0042d3c3 f   MSVCRT:unhandld.obj
 0001:0002c3d2       __XcptFilter               0042d3d2 f   MSVCRT:MSVCR120.dll
 0001:0002c3d8       __amsg_exit                0042d3d8 f   MSVCRT:MSVCR120.dll
 0001:0002c3de       __matherr                  0042d3de f   MSVCRT:merr.obj
 0001:0002c3de       __setargv                  0042d3de f   MSVCRT:dllargv.obj
 0001:0002c3f0       __FindPESection            0042d3f0 f   MSVCRT:pesect.obj
 0001:0002c440       __IsNonwritableInCurrentImage 0042d440 f   MSVCRT:pesect.obj
 0001:0002c500       __ValidateImageBase        0042d500 f   MSVCRT:pesect.obj
 0001:0002c531       ___security_init_cookie    0042d531 f   MSVCRT:gs_support.obj
 0001:0002c5cd       __RTC_Initialize           0042d5cd f   MSVCRT:initsect.obj
 0001:0002c5ed       __RTC_Terminate            0042d5ed f   MSVCRT:initsect.obj
 0001:0002c60d       __setdefaultprecision      0042d60d f   MSVCRT:fp8.obj
 0001:0002c634       __initterm_e               0042d634 f   MSVCRT:MSVCR120.dll
 0001:0002c63a       __initterm                 0042d63a f   MSVCRT:MSVCR120.dll
 0001:0002c640       __except_handler4_common   0042d640 f   MSVCRT:MSVCR120.dll
 0001:0002c646       ?terminate@@YAXXZ          0042d646 f   MSVCRT:MSVCR120.dll
 0001:0002c64c       ___crtSetUnhandledExceptionFilter 0042d64c f   MSVCRT:MSVCR120.dll
 0001:0002c652       __invoke_watson            0042d652 f   MSVCRT:MSVCR120.dll
 0001:0002c658       __controlfp_s              0042d658 f   MSVCRT:MSVCR120.dll
 0001:0002c65e       ??1_Fac_node@std@@QAE@XZ   0042d65e f i msvcprt:locale0_implib.obj
 0001:0002c673       ??1_Fac_tidy_reg_t@std@@QAE@XZ 0042d673 f i msvcprt:locale0_implib.obj
 0001:0002c697       ?_Facet_Register@std@@YAXPAV_Facet_base@1@@Z 0042d697 f   msvcprt:locale0_implib.obj
 0001:0002c6c0       ?_Lock@?$basic_streambuf@DU?$char_traits@D@std@@@std@@UAEXXZ 0042d6c0 f   msvcprt:MSVCP120.dll
 0001:0002c6c6       ?_Unlock@?$basic_streambuf@DU?$char_traits@D@std@@@std@@UAEXXZ 0042d6c6 f   msvcprt:MSVCP120.dll
 0001:0002c6cc       ?imbue@?$basic_streambuf@DU?$char_traits@D@std@@@std@@MAEXABVlocale@2@@Z 0042d6cc f   msvcprt:MSVCP120.dll
 0001:0002c6d2       ?setbuf@?$basic_streambuf@DU?$char_traits@D@std@@@std@@MAEPAV12@PAD_J@Z 0042d6d2 f   msvcprt:MSVCP120.dll
 0001:0002c6d8       ?showmanyc@?$basic_streambuf@DU?$char_traits@D@std@@@std@@MAE_JXZ 0042d6d8 f   msvcprt:MSVCP120.dll
 0001:0002c6de       ?sync@?$basic_streambuf@DU?$char_traits@D@std@@@std@@MAEHXZ 0042d6de f   msvcprt:MSVCP120.dll
 0001:0002c6e4       ?uflow@?$basic_streambuf@DU?$char_traits@D@std@@@std@@MAEHXZ 0042d6e4 f   msvcprt:MSVCP120.dll
 0001:0002c6ea       ?xsgetn@?$basic_streambuf@DU?$char_traits@D@std@@@std@@MAE_JPAD_J@Z 0042d6ea f   msvcprt:MSVCP120.dll
 0001:0002c6f0       ?xsputn@?$basic_streambuf@DU?$char_traits@D@std@@@std@@MAE_JPBD_J@Z 0042d6f0 f   msvcprt:MSVCP120.dll
 0001:0002c6f6       _IsProcessorFeaturePresent@4 0042d6f6 f   kernel32:KERNEL32.dll
 0002:00000000       __imp__TextOutA@20         0042f000     gdi32:GDI32.dll
 0002:00000004       __imp__CreateFontA@56      0042f004     gdi32:GDI32.dll
 0002:00000008       __imp__GetTextMetricsA@8   0042f008     gdi32:GDI32.dll
 0002:0000000c       __imp__GetCharWidthA@16    0042f00c     gdi32:GDI32.dll
 0002:00000010       __imp__CreatePalette@4     0042f010     gdi32:GDI32.dll
 0002:00000014       __imp__CreateSolidBrush@4  0042f014     gdi32:GDI32.dll
 0002:00000018       __imp__CreatePen@12        0042f018     gdi32:GDI32.dll
 0002:0000001c       __imp__SetPixelFormat@12   0042f01c     gdi32:GDI32.dll
 0002:00000020       __imp__DescribePixelFormat@16 0042f020     gdi32:GDI32.dll
 0002:00000024       __imp__EqualRgn@8          0042f024     gdi32:GDI32.dll
 0002:00000028       __imp__GetRgnBox@8         0042f028     gdi32:GDI32.dll
 0002:0000002c       __imp__RectInRegion@8      0042f02c     gdi32:GDI32.dll
 0002:00000030       __imp__SelectClipRgn@8     0042f030     gdi32:GDI32.dll
 0002:00000034       __imp__SelectObject@8      0042f034     gdi32:GDI32.dll
 0002:00000038       __imp__Polygon@12          0042f038     gdi32:GDI32.dll
 0002:0000003c       __imp__SetPixel@16         0042f03c     gdi32:GDI32.dll
 0002:00000040       __imp__MoveToEx@16         0042f040     gdi32:GDI32.dll
 0002:00000044       __imp__LineTo@12           0042f044     gdi32:GDI32.dll
 0002:00000048       __imp__SetTextAlign@8      0042f048     gdi32:GDI32.dll
 0002:0000004c       __imp__SetBkMode@8         0042f04c     gdi32:GDI32.dll
 0002:00000050       __imp__UpdateColors@4      0042f050     gdi32:GDI32.dll
 0002:00000054       __imp__SelectPalette@12    0042f054     gdi32:GDI32.dll
 0002:00000058       __imp__RealizePalette@4    0042f058     gdi32:GDI32.dll
 0002:0000005c       __imp__DeleteObject@4      0042f05c     gdi32:GDI32.dll
 0002:00000060       __imp__CreateRectRgn@16    0042f060     gdi32:GDI32.dll
 0002:00000064       __imp__CombineRgn@16       0042f064     gdi32:GDI32.dll
 0002:00000068       __imp__GdiFlush@0          0042f068     gdi32:GDI32.dll
 0002:0000006c       __imp__GetDeviceCaps@8     0042f06c     gdi32:GDI32.dll
 0002:00000070       __imp__SetTextColor@8      0042f070     gdi32:GDI32.dll
 0002:00000074       \177GDI32_NULL_THUNK_DATA  0042f074     gdi32:GDI32.dll
 0002:00000078       __imp__FindClose@4         0042f078     kernel32:KERNEL32.dll
 0002:0000007c       __imp__FindNextFileA@8     0042f07c     kernel32:KERNEL32.dll
 0002:00000080       __imp__GetLastError@0      0042f080     kernel32:KERNEL32.dll
 0002:00000084       __imp__FindFirstFileA@8    0042f084     kernel32:KERNEL32.dll
 0002:00000088       __imp__GetSystemTimeAsFileTime@4 0042f088     kernel32:KERNEL32.dll
 0002:0000008c       __imp__GetCurrentThreadId@0 0042f08c     kernel32:KERNEL32.dll
 0002:00000090       __imp__GetCurrentProcessId@0 0042f090     kernel32:KERNEL32.dll
 0002:00000094       __imp__QueryPerformanceCounter@4 0042f094     kernel32:KERNEL32.dll
 0002:00000098       __imp__IsProcessorFeaturePresent@4 0042f098     kernel32:KERNEL32.dll
 0002:0000009c       __imp__IsDebuggerPresent@0 0042f09c     kernel32:KERNEL32.dll
 0002:000000a0       __imp__DecodePointer@4     0042f0a0     kernel32:KERNEL32.dll
 0002:000000a4       __imp__EncodePointer@4     0042f0a4     kernel32:KERNEL32.dll
 0002:000000a8       __imp__GetTickCount@0      0042f0a8     kernel32:KERNEL32.dll
 0002:000000ac       __imp__GetModuleHandleA@4  0042f0ac     kernel32:KERNEL32.dll
 0002:000000b0       __imp__GlobalUnlock@4      0042f0b0     kernel32:KERNEL32.dll
 0002:000000b4       __imp__GlobalLock@4        0042f0b4     kernel32:KERNEL32.dll
 0002:000000b8       __imp__AllocConsole@0      0042f0b8     kernel32:KERNEL32.dll
 0002:000000bc       __imp__GlobalAlloc@8       0042f0bc     kernel32:KERNEL32.dll
 0002:000000c0       \177KERNEL32_NULL_THUNK_DATA 0042f0c0     kernel32:KERNEL32.dll
 0002:000000c4       __imp_??0?$basic_ostream@DU?$char_traits@D@std@@@std@@QAE@PAV?$basic_streambuf@DU?$char_traits@D@std@@@1@_N@Z 0042f0c4     msvcprt:MSVCP120.dll
 0002:000000c8       __imp_?widen@?$basic_ios@DU?$char_traits@D@std@@@std@@QBEDD@Z 0042f0c8     msvcprt:MSVCP120.dll
 0002:000000cc       __imp_??1?$basic_ios@DU?$char_traits@D@std@@@std@@UAE@XZ 0042f0cc     msvcprt:MSVCP120.dll
 0002:000000d0       __imp_?_Init@?$basic_streambuf@DU?$char_traits@D@std@@@std@@IAEXXZ 0042f0d0     msvcprt:MSVCP120.dll
 0002:000000d4       __imp_?_Pninc@?$basic_streambuf@DU?$char_traits@D@std@@@std@@IAEPADXZ 0042f0d4     msvcprt:MSVCP120.dll
 0002:000000d8       __imp_??1?$basic_ostream@DU?$char_traits@D@std@@@std@@UAE@XZ 0042f0d8     msvcprt:MSVCP120.dll
 0002:000000dc       __imp_?setg@?$basic_streambuf@DU?$char_traits@D@std@@@std@@IAEXPAD00@Z 0042f0dc     msvcprt:MSVCP120.dll
 0002:000000e0       __imp_?getloc@?$basic_streambuf@DU?$char_traits@D@std@@@std@@QBE?AVlocale@2@XZ 0042f0e0     msvcprt:MSVCP120.dll
 0002:000000e4       __imp_??1?$basic_streambuf@DU?$char_traits@D@std@@@std@@UAE@XZ 0042f0e4     msvcprt:MSVCP120.dll
 0002:000000e8       __imp_??0?$basic_streambuf@DU?$char_traits@D@std@@@std@@IAE@XZ 0042f0e8     msvcprt:MSVCP120.dll
 0002:000000ec       __imp_?_Ios_base_dtor@ios_base@std@@CAXPAV12@@Z 0042f0ec     msvcprt:MSVCP120.dll
 0002:000000f0       __imp_?_Getcat@?$codecvt@DDH@std@@SAIPAPBVfacet@locale@2@PBV42@@Z 0042f0f0     msvcprt:MSVCP120.dll
 0002:000000f4       __imp_?unshift@?$codecvt@DDH@std@@QBEHAAHPAD1AAPAD@Z 0042f0f4     msvcprt:MSVCP120.dll
 0002:000000f8       __imp_?out@?$codecvt@DDH@std@@QBEHAAHPBD1AAPBDPAD3AAPAD@Z 0042f0f8     msvcprt:MSVCP120.dll
 0002:000000fc       __imp_?in@?$codecvt@DDH@std@@QBEHAAHPBD1AAPBDPAD3AAPAD@Z 0042f0fc     msvcprt:MSVCP120.dll
 0002:00000100       __imp_?always_noconv@codecvt_base@std@@QBE_NXZ 0042f100     msvcprt:MSVCP120.dll
 0002:00000104       __imp_?_Getgloballocale@locale@std@@CAPAV_Locimp@12@XZ 0042f104     msvcprt:MSVCP120.dll
 0002:00000108       __imp_??Bid@locale@std@@QAEIXZ 0042f108     msvcprt:MSVCP120.dll
 0002:0000010c       __imp_??6?$basic_ostream@DU?$char_traits@D@std@@@std@@QAEAAV01@P6AAAV01@AAV01@@Z@Z 0042f10c     msvcprt:MSVCP120.dll
 0002:00000110       __imp_??0_Lockit@std@@QAE@H@Z 0042f110     msvcprt:MSVCP120.dll
 0002:00000114       __imp_?peek@?$basic_istream@DU?$char_traits@D@std@@@std@@QAEHXZ 0042f114     msvcprt:MSVCP120.dll
 0002:00000118       __imp_?get@?$basic_istream@DU?$char_traits@D@std@@@std@@QAEHXZ 0042f118     msvcprt:MSVCP120.dll
 0002:0000011c       __imp_?flush@?$basic_ostream@DU?$char_traits@D@std@@@std@@QAEAAV12@XZ 0042f11c     msvcprt:MSVCP120.dll
 0002:00000120       __imp_??6?$basic_ostream@DU?$char_traits@D@std@@@std@@QAEAAV01@N@Z 0042f120     msvcprt:MSVCP120.dll
 0002:00000124       __imp_?_Osfx@?$basic_ostream@DU?$char_traits@D@std@@@std@@QAEXXZ 0042f124     msvcprt:MSVCP120.dll
 0002:00000128       __imp_?setstate@?$basic_ios@DU?$char_traits@D@std@@@std@@QAEXH_N@Z 0042f128     msvcprt:MSVCP120.dll
 0002:0000012c       __imp_?sputn@?$basic_streambuf@DU?$char_traits@D@std@@@std@@QAE_JPBD_J@Z 0042f12c     msvcprt:MSVCP120.dll
 0002:00000130       __imp_?sputc@?$basic_streambuf@DU?$char_traits@D@std@@@std@@QAEHD@Z 0042f130     msvcprt:MSVCP120.dll
 0002:00000134       __imp_?uncaught_exception@std@@YA_NXZ 0042f134     msvcprt:MSVCP120.dll
 0002:00000138       __imp_?_Winerror_map@std@@YAPBDH@Z 0042f138     msvcprt:MSVCP120.dll
 0002:0000013c       __imp_??6?$basic_ostream@DU?$char_traits@D@std@@@std@@QAEAAV01@I@Z 0042f13c     msvcprt:MSVCP120.dll
 0002:00000140       __imp_??6?$basic_ostream@DU?$char_traits@D@std@@@std@@QAEAAV01@M@Z 0042f140     msvcprt:MSVCP120.dll
 0002:00000144       __imp_?put@?$basic_ostream@DU?$char_traits@D@std@@@std@@QAEAAV12@D@Z 0042f144     msvcprt:MSVCP120.dll
 0002:00000148       __imp_??0?$basic_istream@DU?$char_traits@D@std@@@std@@QAE@PAV?$basic_streambuf@DU?$char_traits@D@std@@@1@_N@Z 0042f148     msvcprt:MSVCP120.dll
 0002:0000014c       __imp_?showmanyc@?$basic_streambuf@DU?$char_traits@D@std@@@std@@MAE_JXZ 0042f14c     msvcprt:MSVCP120.dll
 0002:00000150       __imp_?sync@?$basic_streambuf@DU?$char_traits@D@std@@@std@@MAEHXZ 0042f150     msvcprt:MSVCP120.dll
 0002:00000154       __imp_?uflow@?$basic_streambuf@DU?$char_traits@D@std@@@std@@MAEHXZ 0042f154     msvcprt:MSVCP120.dll
 0002:00000158       __imp_?xsgetn@?$basic_streambuf@DU?$char_traits@D@std@@@std@@MAE_JPAD_J@Z 0042f158     msvcprt:MSVCP120.dll
 0002:0000015c       __imp_?xsputn@?$basic_streambuf@DU?$char_traits@D@std@@@std@@MAE_JPBD_J@Z 0042f15c     msvcprt:MSVCP120.dll
 0002:00000160       __imp_?_BADOFF@std@@3_JB   0042f160     msvcprt:MSVCP120.dll
 0002:00000164       __imp_?id@?$codecvt@DDH@std@@2V0locale@2@A 0042f164     msvcprt:MSVCP120.dll
 0002:00000168       __imp_??_7ios_base@std@@6B@ 0042f168     msvcprt:MSVCP120.dll
 0002:0000016c       __imp_??_7?$basic_ios@DU?$char_traits@D@std@@@std@@6B@ 0042f16c     msvcprt:MSVCP120.dll
 0002:00000170       __imp_?cout@std@@3V?$basic_ostream@DU?$char_traits@D@std@@@1@A 0042f170     msvcprt:MSVCP120.dll
 0002:00000174       __imp_?cerr@std@@3V?$basic_ostream@DU?$char_traits@D@std@@@1@A 0042f174     msvcprt:MSVCP120.dll
 0002:00000178       __imp_??1?$basic_istream@DU?$char_traits@D@std@@@std@@UAE@XZ 0042f178     msvcprt:MSVCP120.dll
 0002:0000017c       __imp_??5?$basic_istream@DU?$char_traits@D@std@@@std@@QAEAAV01@AAM@Z 0042f17c     msvcprt:MSVCP120.dll
 0002:00000180       __imp_?get@?$basic_istream@DU?$char_traits@D@std@@@std@@QAEAAV12@AAD@Z 0042f180     msvcprt:MSVCP120.dll
 0002:00000184       __imp_?_Fiopen@std@@YAPAU_iobuf@@PBDHH@Z 0042f184     msvcprt:MSVCP120.dll
 0002:00000188       __imp_?_Lock@?$basic_streambuf@DU?$char_traits@D@std@@@std@@UAEXXZ 0042f188     msvcprt:MSVCP120.dll
 0002:0000018c       __imp_?_Unlock@?$basic_streambuf@DU?$char_traits@D@std@@@std@@UAEXXZ 0042f18c     msvcprt:MSVCP120.dll
 0002:00000190       __imp_?imbue@?$basic_streambuf@DU?$char_traits@D@std@@@std@@MAEXABVlocale@2@@Z 0042f190     msvcprt:MSVCP120.dll
 0002:00000194       __imp_?setbuf@?$basic_streambuf@DU?$char_traits@D@std@@@std@@MAEPAV12@PAD_J@Z 0042f194     msvcprt:MSVCP120.dll
 0002:00000198       __imp_??1_Lockit@std@@QAE@XZ 0042f198     msvcprt:MSVCP120.dll
 0002:0000019c       __imp_?_Xbad_alloc@std@@YAXXZ 0042f19c     msvcprt:MSVCP120.dll
 0002:000001a0       __imp_?_Xlength_error@std@@YAXPBD@Z 0042f1a0     msvcprt:MSVCP120.dll
 0002:000001a4       __imp_?_Xout_of_range@std@@YAXPBD@Z 0042f1a4     msvcprt:MSVCP120.dll
 0002:000001a8       __imp_?setp@?$basic_streambuf@DU?$char_traits@D@std@@@std@@IAEXPAD00@Z 0042f1a8     msvcprt:MSVCP120.dll
 0002:000001ac       __imp_?_Syserror_map@std@@YAPBDH@Z 0042f1ac     msvcprt:MSVCP120.dll
 0002:000001b0       \177MSVCP120_NULL_THUNK_DATA 0042f1b0     msvcprt:MSVCP120.dll
 0002:000001b4       __imp__ispunct             0042f1b4     MSVCRT:MSVCR120.dll
 0002:000001b8       __imp__isalnum             0042f1b8     MSVCRT:MSVCR120.dll
 0002:000001bc       __imp__strchr              0042f1bc     MSVCRT:MSVCR120.dll
 0002:000001c0       __imp___purecall           0042f1c0     MSVCRT:MSVCR120.dll
 0002:000001c4       __imp_??2@YAPAXI@Z         0042f1c4     MSVCRT:MSVCR120.dll
 0002:000001c8       __imp_??3@YAXPAX@Z         0042f1c8     MSVCRT:MSVCR120.dll
 0002:000001cc       __imp____iob_func          0042f1cc     MSVCRT:MSVCR120.dll
 0002:000001d0       __imp__fprintf             0042f1d0     MSVCRT:MSVCR120.dll
 0002:000001d4       __imp__exit                0042f1d4     MSVCRT:MSVCR120.dll
 0002:000001d8       __imp__atoi                0042f1d8     MSVCRT:MSVCR120.dll
 0002:000001dc       __imp__clock               0042f1dc     MSVCRT:MSVCR120.dll
 0002:000001e0       __imp__memmove             0042f1e0     MSVCRT:MSVCR120.dll
 0002:000001e4       __imp___CxxThrowException@8 0042f1e4     MSVCRT:MSVCR120.dll
 0002:000001e8       __imp____CxxFrameHandler3  0042f1e8     MSVCRT:MSVCR120.dll
 0002:000001ec       __imp__memcpy              0042f1ec     MSVCRT:MSVCR120.dll
 0002:000001f0       __imp_??_V@YAXPAX@Z        0042f1f0     MSVCRT:MSVCR120.dll
 0002:000001f4       __imp_??_U@YAPAXI@Z        0042f1f4     MSVCRT:MSVCR120.dll
 0002:000001f8       __imp___libm_sse2_sqrt_precise 0042f1f8     MSVCRT:MSVCR120.dll
 0002:000001fc       __imp__memset              0042f1fc     MSVCRT:MSVCR120.dll
 0002:00000200       __imp__sprintf             0042f200     MSVCRT:MSVCR120.dll
 0002:00000204       __imp__fclose              0042f204     MSVCRT:MSVCR120.dll
 0002:00000208       __imp__fopen               0042f208     MSVCRT:MSVCR120.dll
 0002:0000020c       __imp__fwrite              0042f20c     MSVCRT:MSVCR120.dll
 0002:00000210       __imp__atof                0042f210     MSVCRT:MSVCR120.dll
 0002:00000214       __imp__memcpy_s            0042f214     MSVCRT:MSVCR120.dll
 0002:00000218       __imp__fflush              0042f218     MSVCRT:MSVCR120.dll
 0002:0000021c       __imp__fgetc               0042f21c     MSVCRT:MSVCR120.dll
 0002:00000220       __imp__fgetpos             0042f220     MSVCRT:MSVCR120.dll
 0002:00000224       __imp__fputc               0042f224     MSVCRT:MSVCR120.dll
 0002:00000228       __imp__fsetpos             0042f228     MSVCRT:MSVCR120.dll
 0002:0000022c       __imp___fseeki64           0042f22c     MSVCRT:MSVCR120.dll
 0002:00000230       __imp__setvbuf             0042f230     MSVCRT:MSVCR120.dll
 0002:00000234       __imp___iob                0042f234     MSVCRT:MSVCR120.dll
 0002:00000238       __imp___lock_file          0042f238     MSVCRT:MSVCR120.dll
 0002:0000023c       __imp___unlock_file        0042f23c     MSVCRT:MSVCR120.dll
 0002:00000240       __imp_??0bad_cast@std@@QAE@PBD@Z 0042f240     MSVCRT:MSVCR120.dll
 0002:00000244       __imp_??0bad_cast@std@@QAE@ABV01@@Z 0042f244     MSVCRT:MSVCR120.dll
 0002:00000248       __imp_??0exception@std@@QAE@ABV01@@Z 0042f248     MSVCRT:MSVCR120.dll
 0002:0000024c       __imp_??1bad_cast@std@@UAE@XZ 0042f24c     MSVCRT:MSVCR120.dll
 0002:00000250       __imp___libm_sse2_cos_precise 0042f250     MSVCRT:MSVCR120.dll
 0002:00000254       __imp___libm_sse2_sin_precise 0042f254     MSVCRT:MSVCR120.dll
 0002:00000258       __imp___libm_sse2_tan_precise 0042f258     MSVCRT:MSVCR120.dll
 0002:0000025c       __imp___libm_sse2_pow_precise 0042f25c     MSVCRT:MSVCR120.dll
 0002:00000260       __imp__toupper             0042f260     MSVCRT:MSVCR120.dll
 0002:00000264       __imp__tolower             0042f264     MSVCRT:MSVCR120.dll
 0002:00000268       __imp__isupper             0042f268     MSVCRT:MSVCR120.dll
 0002:0000026c       __imp__isalpha             0042f26c     MSVCRT:MSVCR120.dll
 0002:00000270       __imp____CxxFrameHandler   0042f270     MSVCRT:MSVCR120.dll
 0002:00000274       __imp__strcmp              0042f274     MSVCRT:MSVCR120.dll
 0002:00000278       __imp__getenv              0042f278     MSVCRT:MSVCR120.dll
 0002:0000027c       __imp__free                0042f27c     MSVCRT:MSVCR120.dll
 0002:00000280       __imp__fabs                0042f280     MSVCRT:MSVCR120.dll
 0002:00000284       __imp__floor               0042f284     MSVCRT:MSVCR120.dll
 0002:00000288       __imp___ftol               0042f288     MSVCRT:MSVCR120.dll
 0002:0000028c       __imp__strerror            0042f28c     MSVCRT:MSVCR120.dll
 0002:00000290       __imp___errno              0042f290     MSVCRT:MSVCR120.dll
 0002:00000294       __imp__strcpy              0042f294     MSVCRT:MSVCR120.dll
 0002:00000298       __imp__strncmp             0042f298     MSVCRT:MSVCR120.dll
 0002:0000029c       __imp__strlen              0042f29c     MSVCRT:MSVCR120.dll
 0002:000002a0       __imp__realloc             0042f2a0     MSVCRT:MSVCR120.dll
 0002:000002a4       __imp__malloc              0042f2a4     MSVCRT:MSVCR120.dll
 0002:000002a8       __imp__abs                 0042f2a8     MSVCRT:MSVCR120.dll
 0002:000002ac       __imp__isspace             0042f2ac     MSVCRT:MSVCR120.dll
 0002:000002b0       __imp__strtol              0042f2b0     MSVCRT:MSVCR120.dll
 0002:000002b4       __imp__strncpy             0042f2b4     MSVCRT:MSVCR120.dll
 0002:000002b8       __imp__qsort               0042f2b8     MSVCRT:MSVCR120.dll
 0002:000002bc       __imp__calloc              0042f2bc     MSVCRT:MSVCR120.dll
 0002:000002c0       __imp___pctype             0042f2c0     MSVCRT:MSVCR120.dll
 0002:000002c4       __imp___isctype            0042f2c4     MSVCRT:MSVCR120.dll
 0002:000002c8       __imp____mb_cur_max        0042f2c8     MSVCRT:MSVCR120.dll
 0002:000002cc       __imp___lock               0042f2cc     MSVCRT:MSVCR120.dll
 0002:000002d0       __imp___unlock             0042f2d0     MSVCRT:MSVCR120.dll
 0002:000002d4       __imp___calloc_crt         0042f2d4     MSVCRT:MSVCR120.dll
 0002:000002d8       __imp____dllonexit         0042f2d8     MSVCRT:MSVCR120.dll
 0002:000002dc       __imp___onexit             0042f2dc     MSVCRT:MSVCR120.dll
 0002:000002e0       __imp_??1type_info@@UAE@XZ 0042f2e0     MSVCRT:MSVCR120.dll
 0002:000002e4       __imp___crt_debugger_hook  0042f2e4     MSVCRT:MSVCR120.dll
 0002:000002e8       __imp____crtUnhandledException 0042f2e8     MSVCRT:MSVCR120.dll
 0002:000002ec       __imp____crtTerminateProcess 0042f2ec     MSVCRT:MSVCR120.dll
 0002:000002f0       __imp___XcptFilter         0042f2f0     MSVCRT:MSVCR120.dll
 0002:000002f4       __imp____crtGetShowWindowMode 0042f2f4     MSVCRT:MSVCR120.dll
 0002:000002f8       __imp___amsg_exit          0042f2f8     MSVCRT:MSVCR120.dll
 0002:000002fc       __imp____getmainargs       0042f2fc     MSVCRT:MSVCR120.dll
 0002:00000300       __imp____set_app_type      0042f300     MSVCRT:MSVCR120.dll
 0002:00000304       __imp___exit               0042f304     MSVCRT:MSVCR120.dll
 0002:00000308       __imp___cexit              0042f308     MSVCRT:MSVCR120.dll
 0002:0000030c       __imp___ismbblead          0042f30c     MSVCRT:MSVCR120.dll
 0002:00000310       __imp___configthreadlocale 0042f310     MSVCRT:MSVCR120.dll
 0002:00000314       __imp____setusermatherr    0042f314     MSVCRT:MSVCR120.dll
 0002:00000318       __imp___initterm_e         0042f318     MSVCRT:MSVCR120.dll
 0002:0000031c       __imp___initterm           0042f31c     MSVCRT:MSVCR120.dll
 0002:00000320       __imp___acmdln             0042f320     MSVCRT:MSVCR120.dll
 0002:00000324       __imp___fmode              0042f324     MSVCRT:MSVCR120.dll
 0002:00000328       __imp___commode            0042f328     MSVCRT:MSVCR120.dll
 0002:0000032c       __imp___except_handler4_common 0042f32c     MSVCRT:MSVCR120.dll
 0002:00000330       __imp_?terminate@@YAXXZ    0042f330     MSVCRT:MSVCR120.dll
 0002:00000334       __imp____crtSetUnhandledExceptionFilter 0042f334     MSVCRT:MSVCR120.dll
 0002:00000338       __imp___invoke_watson      0042f338     MSVCRT:MSVCR120.dll
 0002:0000033c       __imp___controlfp_s        0042f33c     MSVCRT:MSVCR120.dll
 0002:00000340       __imp____p___argc          0042f340     MSVCRT:MSVCR120.dll
 0002:00000344       __imp____p___argv          0042f344     MSVCRT:MSVCR120.dll
 0002:00000348       __imp__freopen             0042f348     MSVCRT:MSVCR120.dll
 0002:0000034c       __imp__ungetc              0042f34c     MSVCRT:MSVCR120.dll
 0002:00000350       \177MSVCR120_NULL_THUNK_DATA 0042f350     MSVCRT:MSVCR120.dll
 0002:00000354       __imp__stat                0042f354     MSVCRTD:MSVCR120D.dll
 0002:00000354       __imp___stat32             0042f354     MSVCRTD:MSVCR120D.dll
 0002:00000358       __imp__getcwd              0042f358     MSVCRTD:MSVCR120D.dll
 0002:00000358       __imp___getcwd             0042f358     MSVCRTD:MSVCR120D.dll
 0002:0000035c       \177MSVCR120D_NULL_THUNK_DATA 0042f35c     MSVCRTD:MSVCR120D.dll
 0002:00000360       __imp__glFlush@0           0042f360     opengl32:OPENGL32.dll
 0002:00000364       __imp__glDrawBuffer@4      0042f364     opengl32:OPENGL32.dll
 0002:00000368       __imp__glRasterPos2i@8     0042f368     opengl32:OPENGL32.dll
 0002:0000036c       __imp__glOrtho@48          0042f36c     opengl32:OPENGL32.dll
 0002:00000370       __imp__glViewport@16       0042f370     opengl32:OPENGL32.dll
 0002:00000374       __imp__glDisable@4         0042f374     opengl32:OPENGL32.dll
 0002:00000378       __imp__glPixelStorei@8     0042f378     opengl32:OPENGL32.dll
 0002:0000037c       __imp__glDrawPixels@20     0042f37c     opengl32:OPENGL32.dll
 0002:00000380       __imp__glClear@4           0042f380     opengl32:OPENGL32.dll
 0002:00000384       __imp__glLoadIdentity@0    0042f384     opengl32:OPENGL32.dll
 0002:00000388       __imp__glGetIntegerv@8     0042f388     opengl32:OPENGL32.dll
 0002:0000038c       __imp__wglSwapLayerBuffers@8 0042f38c     opengl32:OPENGL32.dll
 0002:00000390       __imp__glCopyPixels@20     0042f390     opengl32:OPENGL32.dll
 0002:00000394       __imp__glReadBuffer@4      0042f394     opengl32:OPENGL32.dll
 0002:00000398       __imp__wglRealizeLayerPalette@12 0042f398     opengl32:OPENGL32.dll
 0002:0000039c       __imp__wglShareLists@8     0042f39c     opengl32:OPENGL32.dll
 0002:000003a0       __imp__wglCreateContext@4  0042f3a0     opengl32:OPENGL32.dll
 0002:000003a4       __imp__wglCreateLayerContext@8 0042f3a4     opengl32:OPENGL32.dll
 0002:000003a8       __imp__wglMakeCurrent@8    0042f3a8     opengl32:OPENGL32.dll
 0002:000003ac       __imp__wglDeleteContext@4  0042f3ac     opengl32:OPENGL32.dll
 0002:000003b0       __imp__glClearColor@16     0042f3b0     opengl32:OPENGL32.dll
 0002:000003b4       \177OPENGL32_NULL_THUNK_DATA 0042f3b4     opengl32:OPENGL32.dll
 0002:000003b8       __imp__LoadIconA@8         0042f3b8     user32:USER32.dll
 0002:000003bc       __imp__LoadCursorA@8       0042f3bc     user32:USER32.dll
 0002:000003c0       __imp__RegisterClassExA@4  0042f3c0     user32:USER32.dll
 0002:000003c4       __imp__CreateWindowExA@48  0042f3c4     user32:USER32.dll
 0002:000003c8       __imp__SetWindowPos@28     0042f3c8     user32:USER32.dll
 0002:000003cc       __imp__GetSystemMetrics@4  0042f3cc     user32:USER32.dll
 0002:000003d0       __imp__GetCursorPos@4      0042f3d0     user32:USER32.dll
 0002:000003d4       __imp__SystemParametersInfoA@16 0042f3d4     user32:USER32.dll
 0002:000003d8       __imp__PeekMessageA@20     0042f3d8     user32:USER32.dll
 0002:000003dc       __imp__DefWindowProcA@16   0042f3dc     user32:USER32.dll
 0002:000003e0       __imp__GetMessageA@16      0042f3e0     user32:USER32.dll
 0002:000003e4       __imp__KillTimer@8         0042f3e4     user32:USER32.dll
 0002:000003e8       __imp__TranslateMessage@4  0042f3e8     user32:USER32.dll
 0002:000003ec       __imp__DispatchMessageA@4  0042f3ec     user32:USER32.dll
 0002:000003f0       __imp__SetCursor@4         0042f3f0     user32:USER32.dll
 0002:000003f4       __imp__MessageBeep@4       0042f3f4     user32:USER32.dll
 0002:000003f8       __imp__ShowWindow@8        0042f3f8     user32:USER32.dll
 0002:000003fc       __imp__ReleaseDC@8         0042f3fc     user32:USER32.dll
 0002:00000400       __imp__DestroyWindow@4     0042f400     user32:USER32.dll
 0002:00000404       __imp__GetKeyState@4       0042f404     user32:USER32.dll
 0002:00000408       __imp__GetAsyncKeyState@4  0042f408     user32:USER32.dll
 0002:0000040c       __imp__ValidateRgn@8       0042f40c     user32:USER32.dll
 0002:00000410       __imp__GetUpdateRgn@12     0042f410     user32:USER32.dll
 0002:00000414       __imp__InvalidateRgn@12    0042f414     user32:USER32.dll
 0002:00000418       __imp__InvalidateRect@12   0042f418     user32:USER32.dll
 0002:0000041c       __imp__ReleaseCapture@0    0042f41c     user32:USER32.dll
 0002:00000420       __imp__SetCapture@4        0042f420     user32:USER32.dll
 0002:00000424       __imp__ClientToScreen@8    0042f424     user32:USER32.dll
 0002:00000428       __imp__SetWindowTextA@8    0042f428     user32:USER32.dll
 0002:0000042c       __imp__BringWindowToTop@4  0042f42c     user32:USER32.dll
 0002:00000430       __imp__OpenIcon@4          0042f430     user32:USER32.dll
 0002:00000434       __imp__IsIconic@4          0042f434     user32:USER32.dll
 0002:00000438       __imp__GetDC@4             0042f438     user32:USER32.dll
 0002:0000043c       __imp__FillRect@12         0042f43c     user32:USER32.dll
 0002:00000440       __imp__GetDCEx@12          0042f440     user32:USER32.dll
 0002:00000444       __imp__MessageBoxA@16      0042f444     user32:USER32.dll
 0002:00000448       __imp__CloseClipboard@0    0042f448     user32:USER32.dll
 0002:0000044c       __imp__SetClipboardData@8  0042f44c     user32:USER32.dll
 0002:00000450       __imp__EmptyClipboard@0    0042f450     user32:USER32.dll
 0002:00000454       __imp__OpenClipboard@4     0042f454     user32:USER32.dll
 0002:00000458       __imp__GetClipboardData@4  0042f458     user32:USER32.dll
 0002:0000045c       __imp__SetActiveWindow@4   0042f45c     user32:USER32.dll
 0002:00000460       __imp__SetTimer@16         0042f460     user32:USER32.dll
 0002:00000464       \177USER32_NULL_THUNK_DATA 0042f464     user32:USER32.dll
 0002:00000468       __imp__select@20           0042f468     wsock32:WSOCK32.dll
 0002:0000046c       __imp____WSAFDIsSet@8      0042f46c     wsock32:WSOCK32.dll
 0002:00000470       \177WSOCK32_NULL_THUNK_DATA 0042f470     wsock32:WSOCK32.dll
 0002:00000474       ___xc_a                    0042f474     MSVCRT:cinitexe.obj
 0002:00000490       ___xc_z                    0042f490     MSVCRT:cinitexe.obj
 0002:00000494       ___xi_a                    0042f494     MSVCRT:cinitexe.obj
 0002:000004a4       ___xi_z                    0042f4a4     MSVCRT:cinitexe.obj
 0002:000004b4       ??_7error_category@std@@6B@ 0042f4b4     main.obj
 0002:000004d0       ??_7_Generic_error_category@std@@6B@ 0042f4d0     main.obj
 0002:000004e8       ??_C@_07DCLBNMLN@generic?$AA@ 0042f4e8     main.obj
 0002:000004f0       ??_C@_0O@BFJCFAAK@unknown?5error?$AA@ 0042f4f0     main.obj
 0002:00000504       ??_7_Iostream_error_category@std@@6B@ 0042f504     main.obj
 0002:0000051c       ??_C@_08LLGCOLLL@iostream?$AA@ 0042f51c     main.obj
 0002:00000528       ??_C@_0BG@PADBLCHM@iostream?5stream?5error?$AA@ 0042f528     main.obj
 0002:00000544       ??_7_System_error_category@std@@6B@ 0042f544     main.obj
 0002:0000055c       ??_C@_06FHFOAHML@system?$AA@ 0042f55c     main.obj
 0002:00000564       ??_C@_0DF@NNOEACBM@usage?3?5?$CFs?5?$FL?9r?5?$DM?$CD?$DO?5?9w?5?$DM?$CD?$DO?5?9t?$FN?5?$FLin@ 0042f564     main.obj
 0002:0000059c       ??_C@_07NLNIDKMO@tr?3w?3h?3?$AA@ 0042f59c     main.obj
 0002:000005a4       ??_C@_0BO@KHKCPKHG@no?5input?5and?1or?5output?5name?4?6?$AA@ 0042f5a4     main.obj
 0002:000005c4       ??_C@_0BL@CIPBKBPM@total?5time?5?$DN?5?$CF?43f?5seconds?6?$AA@ 0042f5c4     main.obj
 0002:000005e0       ??_C@_0BA@JFNIOLAK@string?5too?5long?$AA@ 0042f5e0     main.obj
 0002:000005f0       ??_C@_0BI@CFPLBAOH@invalid?5string?5position?$AA@ 0042f5f0     main.obj
 0002:00000608       __real@3fe0000000000000    0042f608     main.obj
 0002:00000610       __real@408f400000000000    0042f610     main.obj
 0002:00000618       ??_C@_0BA@DKEIIMHB@ParseError?3?5?$CFs?6?$AA@ 0042f618     RayTracer.obj
 0002:00000628       __real@3cb0000000000000    0042f628     RayTracer.obj
 0002:00000630       __real@3ff0000000000000    0042f630     RayTracer.obj
 0002:00000638       __real@4000000000000000    0042f638     RayTracer.obj
 0002:00000640       __real@406fe00000000000    0042f640     RayTracer.obj
 0002:00000648       __real@4070000000000000    0042f648     RayTracer.obj
 0002:00000650       __xmm@3ff00000000000003ff0000000000000 0042f650     RayTracer.obj
 0002:00000664       ??_7Fl_Gl_Window@@6B@      0042f664     TraceGLWindow.obj
 0002:00000688       ??_7TraceGLWindow@@6B@     0042f688     TraceGLWindow.obj
 0002:000006a8       ??_C@_05FHBCAALB@?$CGFile?$AA@ 0042f6a8     TraceUI.obj
 0002:000006b0       ??_C@_0P@KFLCMLL@?$CGLoad?5Scene?4?4?4?$AA@ 0042f6b0     TraceUI.obj
 0002:000006c0       ??_C@_0P@IGLBNMCE@?$CGSave?5Image?4?4?4?$AA@ 0042f6c0     TraceUI.obj
 0002:000006d0       ??_C@_05KNAFKLGA@?$CGExit?$AA@ 0042f6d0     TraceUI.obj
 0002:000006d8       ??_C@_05JFEBOHHM@?$CGHelp?$AA@ 0042f6d8     TraceUI.obj
 0002:000006e0       ??_C@_06JDCECANP@?$CGAbout?$AA@ 0042f6e0     TraceUI.obj
 0002:000006ec       ??_7Fl_Menu_Bar@@6B@       0042f6ec     TraceUI.obj
 0002:000006fc       ??_C@_05OACFOCNG@?$CK?4ray?$AA@ 0042f6fc     TraceUI.obj
 0002:00000704       ??_C@_0M@GCFCGBJC@Open?5Scene?$DP?$AA@ 0042f704     TraceUI.obj
 0002:00000710       ??_C@_08MDAAHFLF@Ray?5?$DM?$CFs?$DO?$AA@ 0042f710     TraceUI.obj
 0002:0000071c       ??_C@_0BB@NGIDKHOI@Ray?5?$DMNot?5Loaded?$DO?$AA@ 0042f71c     TraceUI.obj
 0002:00000730       ??_C@_08JLPGEAPE@save?4bmp?$AA@ 0042f730     TraceUI.obj
 0002:0000073c       ??_C@_05GIOEPHGE@?$CK?4bmp?$AA@ 0042f73c     TraceUI.obj
 0002:00000744       ??_C@_0M@DLNIDFGI@Save?5Image?$DP?$AA@ 0042f744     TraceUI.obj
 0002:00000750       ??_C@_0HH@DJOINAMI@RayTracer?5Project?0?5FLTK?5version?5@ 0042f750     TraceUI.obj
 0002:000007c8       ??_C@_09EAKLHDML@?$CI?$CFd?$CF?$CF?$CJ?5?$CFs?$AA@ 0042f7c8     TraceUI.obj
 0002:000007d4       ??_C@_05BOMFGPKE@Depth?$AA@ 0042f7d4     TraceUI.obj
 0002:000007dc       ??_C@_04EBKMHHBE@Size?$AA@ 0042f7dc     TraceUI.obj
 0002:000007e4       ??_C@_07IIOEJGPH@?$CGRender?$AA@ 0042f7e4     TraceUI.obj
 0002:000007ec       ??_C@_05GIJCMPEM@?$CGStop?$AA@ 0042f7ec     TraceUI.obj
 0002:000007f4       ??_C@_0P@BIKGMPPG@Rendered?5Image?$AA@ 0042f7f4     TraceUI.obj
 0002:00000808       __real@4024000000000000    0042f808     TraceUI.obj
 0002:00000810       __real@4050000000000000    0042f810     TraceUI.obj
 0002:00000818       __real@4059000000000000    0042f818     TraceUI.obj
 0002:00000820       __real@4080000000000000    0042f820     TraceUI.obj
 0002:00000828       ??_C@_02GMLFBBN@wb?$AA@    0042f828     bitmap.obj
 0002:0000082c       ??_C@_05LAPONLG@false?$AA@ 0042f82c     parse.obj
 0002:00000834       ??_C@_04LOAJBDKD@true?$AA@ 0042f834     parse.obj
 0002:00000839       ??_C@_00CNPNBAHC@?$AA@     0042f839     parse.obj
 0002:0000083c       ??_C@_01LFCBOECM@?4?$AA@   0042f83c     parse.obj
 0002:00000840       ??_C@_06ODAJNOHJ@?0?5got?5?$AA@ 0042f840     parse.obj
 0002:00000848       ??_C@_0CM@GIEFMEBK@Type?5mismatch?5error?5during?5parse@ 0042f848     parse.obj
 0002:00000878       ??_7Obj@@6B@               0042f878     parse.obj
 0002:000008a4       ??_C@_05JMKJMOPH@token?$AA@ 0042f8a4     parse.obj
 0002:000008ac       ??_C@_06LAMNDLOG@scalar?$AA@ 0042f8ac     parse.obj
 0002:000008b4       ??_C@_04DDKJGDCM@bool?$AA@ 0042f8b4     parse.obj
 0002:000008bc       ??_C@_02EGCJHIOB@id?$AA@   0042f8bc     parse.obj
 0002:000008c0       ??_C@_06ICGJLFIM@string?$AA@ 0042f8c0     parse.obj
 0002:000008c8       ??_C@_05NNMEHDAO@tuple?$AA@ 0042f8c8     parse.obj
 0002:000008d0       ??_C@_04BCIDKIGN@dict?$AA@ 0042f8d0     parse.obj
 0002:000008d8       ??_C@_05FOFAOGDN@named?$AA@ 0042f8d8     parse.obj
 0002:000008e4       ??_7ScalarObj@@6B@         0042f8e4     parse.obj
 0002:00000914       ??_7BooleanObj@@6B@        0042f914     parse.obj
 0002:00000944       ??_7IdObj@@6B@             0042f944     parse.obj
 0002:00000974       ??_7StringObj@@6B@         0042f974     parse.obj
 0002:000009a4       ??_7TupleObj@@6B@          0042f9a4     parse.obj
 0002:000009d0       ??_C@_02KEGNLNML@?0?5?$AA@ 0042f9d0     parse.obj
 0002:000009d8       ??_7DictObj@@6B@           0042f9d8     parse.obj
 0002:00000a04       ??_C@_02LNAEAIDO@?$DL?5?$AA@ 0042fa04     parse.obj
 0002:00000a08       ??_C@_03MHLONNLM@?5?$DN?5?$AA@ 0042fa08     parse.obj
 0002:00000a10       ??_7NamedObj@@6B@          0042fa10     parse.obj
 0002:00000a3c       ??_C@_0CC@IDEKONCJ@Parse?5Error?3?5unterminated?5commen@ 0042fa3c     parse.obj
 0002:00000a60       ??_C@_04OIEAJMJE@?$HN?$CJ?0?$DL?$AA@ 0042fa60     parse.obj
 0002:00000a68       ??_C@_0M@HAMAGFOL@?5?7?6?$DN?$HL?$HN?$CI?$CJ?$DL?0?1?$AA@ 0042fa68     parse.obj
 0002:00000a74       ??_C@_0BN@PKELOCAN@Parse?5error?3?5expected?5comma?4?$AA@ 0042fa74     parse.obj
 0002:00000a94       ??_C@_0BO@DILJNIKO@Parse?5error?3?5expected?5equals?4?$AA@ 0042fa94     parse.obj
 0002:00000ab4       ??_C@_0CK@FGHMGNDN@Parse?5error?3?5expected?5semicolon?5@ 0042fab4     parse.obj
 0002:00000ae0       ??_C@_0BD@OLBABOEK@vector?$DMT?$DO?5too?5long?$AA@ 0042fae0     parse.obj
 0002:00000af4       ??_C@_0BE@JONHPENG@map?1set?$DMT?$DO?5too?5long?$AA@ 0042faf4     parse.obj
 0002:00000b14       ??_7strstreambuf@std@@6B@  0042fb14     read.obj
 0002:00000b54       ??_7ostrstream@std@@6B@    0042fb54     read.obj
 0002:00000b58       ??_8ostrstream@std@@7B@    0042fb58     read.obj
 0002:00000b64       ??_7Material@@6B@          0042fb64     read.obj
 0002:00000b6c       ??_7SceneElement@@6B@      0042fb6c     read.obj
 0002:00000b74       ??_7MaterialSceneObject@@6B@ 0042fb74     read.obj
 0002:00000b98       ??_7Scene@@6B@             0042fb98     read.obj
 0002:00000ba0       ??_7Trimesh@@6B@           0042fba0     read.obj
 0002:00000bc4       ??_7Box@@6B@               0042fbc4     read.obj
 0002:00000be8       ??_7Cone@@6B@              0042fbe8     read.obj
 0002:00000c0c       ??_7Cylinder@@6B@          0042fc0c     read.obj
 0002:00000c30       ??_7Sphere@@6B@            0042fc30     read.obj
 0002:00000c54       ??_7Square@@6B@            0042fc54     read.obj
 0002:00000c78       ??_7DirectionalLight@@6B@  0042fc78     read.obj
 0002:00000c90       ??_7PointLight@@6B@        0042fc90     read.obj
 0002:00000ca8       ??_7?$basic_filebuf@DU?$char_traits@D@std@@@std@@6B@ 0042fca8     read.obj
 0002:00000ce8       ??_7?$basic_ifstream@DU?$char_traits@D@std@@@std@@6B@ 0042fce8     read.obj
 0002:00000cec       ??_8?$basic_ifstream@DU?$char_traits@D@std@@@std@@7B@ 0042fcec     read.obj
 0002:00000cf4       ??_C@_0CB@CMNMOCL@Error?3?5couldn?8t?5read?5scene?5file?5@ 0042fcf4     read.obj
 0002:00000d18       ??_C@_0O@DJOCHAI@Parse?5error?3?5?$AA@ 0042fd18     read.obj
 0002:00000d28       ??_C@_0O@FACIOJJJ@SBT?9raytracer?$AA@ 0042fd28     read.obj
 0002:00000d38       ??_C@_0CA@IMDDPACM@Input?5is?5not?5an?5SBT?5input?5file?4?$AA@ 0042fd38     read.obj
 0002:00000d58       ??_C@_0BD@KNJCBHMB@?0?5need?5version?51?40?$AA@ 0042fd58     read.obj
 0002:00000d6c       ??_C@_0BC@BCJEKMIF@Input?5is?5version?5?$AA@ 0042fd6c     read.obj
 0002:00000d80       ??_C@_0BP@FDOIHNDN@Object?5contains?5no?5color?5field?$AA@ 0042fd80     read.obj
 0002:00000da0       ??_C@_05PEENBMOG@color?$AA@ 0042fda0     read.obj
 0002:00000da8       ??_C@_06FBNLAHKA@colour?$AA@ 0042fda8     read.obj
 0002:00000db0       ??_C@_01BJJEKLCA@?$CC?$AA@ 0042fdb0     read.obj
 0002:00000db4       ??_C@_0CB@NAFHLPFG@Object?5contains?5no?5field?5named?5?$CC@ 0042fdb4     read.obj
 0002:00000dd8       ??_C@_0BG@OLFBDBCH@Unknown?5input?5object?5?$AA@ 0042fdd8     read.obj
 0002:00000df0       ??_C@_0M@ECHGAHIB@?0?5expected?5?$AA@ 0042fdf0     read.obj
 0002:00000dfc       ??_C@_0BA@BCEPJBGM@Bad?5tuple?5size?5?$AA@ 0042fdfc     read.obj
 0002:00000e0c       ??_C@_09ODNGOEIO@translate?$AA@ 0042fe0c     read.obj
 0002:00000e18       ??_C@_06CEHMNFAL@rotate?$AA@ 0042fe18     read.obj
 0002:00000e20       ??_C@_05MHMEBBGO@scale?$AA@ 0042fe20     read.obj
 0002:00000e28       ??_C@_09IFONHNKG@transform?$AA@ 0042fe28     read.obj
 0002:00000e34       ??_C@_07HAACKDAH@trimesh?$AA@ 0042fe34     read.obj
 0002:00000e3c       ??_C@_08BGGMGDGA@polymesh?$AA@ 0042fe3c     read.obj
 0002:00000e48       ??_C@_08KNOEMJMM@material?$AA@ 0042fe48     read.obj
 0002:00000e54       ??_C@_06FOHEPPJH@sphere?$AA@ 0042fe54     read.obj
 0002:00000e5c       ??_C@_03OLPJGAII@box?$AA@  0042fe5c     read.obj
 0002:00000e60       ??_C@_08GNLJBPEP@cylinder?$AA@ 0042fe60     read.obj
 0002:00000e6c       ??_C@_04NOMJJLOC@cone?$AA@ 0042fe6c     read.obj
 0002:00000e74       ??_C@_06LNLHEAAG@height?$AA@ 0042fe74     read.obj
 0002:00000e7c       ??_C@_0O@MGOOHFDO@bottom_radius?$AA@ 0042fe7c     read.obj
 0002:00000e8c       ??_C@_0L@ECCBOGFH@top_radius?$AA@ 0042fe8c     read.obj
 0002:00000e98       ??_C@_06MGAFENDN@capped?$AA@ 0042fe98     read.obj
 0002:00000ea0       ??_C@_06ICDKOIFG@square?$AA@ 0042fea0     read.obj
 0002:00000ea8       ??_C@_06GPGIDCJA@points?$AA@ 0042fea8     read.obj
 0002:00000eb0       ??_C@_05FHFPJHPF@faces?$AA@ 0042feb0     read.obj
 0002:00000eb8       ??_C@_0CF@GEDICGEO@Faces?5must?5have?5at?5least?53?5verti@ 0042feb8     read.obj
 0002:00000ee0       ??_C@_0BF@OEEFHGHM@Bad?5face?5in?5trimesh?4?$AA@ 0042fee0     read.obj
 0002:00000ef8       ??_C@_0L@BHGKEBAO@gennormals?$AA@ 0042fef8     read.obj
 0002:00000f04       ??_C@_09JGGNEAGH@materials?$AA@ 0042ff04     read.obj
 0002:00000f10       ??_C@_07MDEPDJDC@normals?$AA@ 0042ff10     read.obj
 0002:00000f18       ??_C@_08GHNOEFBP@emissive?$AA@ 0042ff18     read.obj
 0002:00000f24       ??_C@_07LIABELBC@ambient?$AA@ 0042ff24     read.obj
 0002:00000f2c       ??_C@_08DPLIAGAA@specular?$AA@ 0042ff2c     read.obj
 0002:00000f38       ??_C@_07KFBPAAO@diffuse?$AA@ 0042ff38     read.obj
 0002:00000f40       ??_C@_0L@PIKBEMPP@reflective?$AA@ 0042ff40     read.obj
 0002:00000f4c       ??_C@_0N@LNDBFIIK@transmissive?$AA@ 0042ff4c     read.obj
 0002:00000f5c       ??_C@_05FKHKFDID@index?$AA@ 0042ff5c     read.obj
 0002:00000f64       ??_C@_09KFDJGKDF@shininess?$AA@ 0042ff64     read.obj
 0002:00000f70       ??_C@_04MEMAJGDJ@name?$AA@ 0042ff70     read.obj
 0002:00000f78       ??_C@_0CG@IHKLPAFD@Attempt?5to?5bind?5material?5with?5no@ 0042ff78     read.obj
 0002:00000fa0       ??_C@_08OAGMDKAF@position?$AA@ 0042ffa0     read.obj
 0002:00000fac       ??_C@_0L@JPALPDGI@quaternion?$AA@ 0042ffac     read.obj
 0002:00000fb8       ??_C@_0BC@IKBCFBBB@Bogus?5quaternion?4?$AA@ 0042ffb8     read.obj
 0002:00000fcc       ??_C@_03PKBINKFB@fov?$AA@  0042ffcc     read.obj
 0002:00000fd0       ??_C@_0M@FFGFHNCN@aspectratio?$AA@ 0042ffd0     read.obj
 0002:00000fdc       ??_C@_07BDEMJIAO@viewdir?$AA@ 0042ffdc     read.obj
 0002:00000fe4       ??_C@_05CELKJGO@updir?$AA@ 0042ffe4     read.obj
 0002:00000fec       ??_C@_0BC@CFBAKHOB@directional_light?$AA@ 0042ffec     read.obj
 0002:00001000       ??_C@_0BO@NHKEEDJH@No?5info?5for?5directional_light?$AA@ 00430000     read.obj
 0002:00001020       ??_C@_09HPKLLIJF@direction?$AA@ 00430020     read.obj
 0002:0000102c       ??_C@_0M@GHOKJKOP@point_light?$AA@ 0043002c     read.obj
 0002:00001038       ??_C@_0BI@OAABJGEO@No?5info?5for?5point_light?$AA@ 00430038     read.obj
 0002:00001050       ??_C@_06FNKMPIBD@camera?$AA@ 00430050     read.obj
 0002:00001058       ??_C@_0BG@BBAIFKIF@Unrecognized?5object?3?5?$AA@ 00430058     read.obj
 0002:00001070       ??_C@_08EPJLHIJG@bad?5cast?$AA@ 00430070     read.obj
 0002:0000107c       ??_C@_0BB@MOGOBHAF@list?$DMT?$DO?5too?5long?$AA@ 0043007c     read.obj
 0002:00001090       __real@3ee4f8b588e368f1    00430090     read.obj
 0002:00001098       __real@3f800000            00430098     read.obj
 0002:000010a0       __real@bee4f8b588e368f1    004300a0     read.obj
 0002:000010b0       __xmm@00000000000000003ff0000000000000 004300b0     read.obj
 0002:000010c0       __xmm@3fe00000000000003fe0000000000000 004300c0     read.obj
 0002:000010d0       __xmm@3ff00000000000000000000000000000 004300d0     read.obj
 0002:000010e0       __xmm@80000000000000008000000000000000 004300e0     read.obj
 0002:000010f0       __xmm@bfe0000000000000bfe0000000000000 004300f0     read.obj
 0002:00001100       __xmm@bff0000000000000bff0000000000000 00430100     read.obj
 0002:00001110       __real@0000000000000000    00430110     vecmath.obj
 0002:00001120       __xmm@7fffffffffffffff7fffffffffffffff 00430120     vecmath.obj
 0002:00001130       __real@404ca5dc1a63bfe5    00430130     camera.obj
 0002:00001138       __real@bff0000000000000    00430138     camera.obj
 0002:00001140       __real@3f07d9d537c42b57    00430140     light.obj
 0002:00001148       __real@3f6ba07338c2fb4e    00430148     light.obj
 0002:00001150       __real@3fd0000000000000    00430150     light.obj
 0002:00001168       __real@4010000000000000    00430168     Cone.obj
 0002:00001178       __real@8000000000000000    00430178     Cylinder.obj
 0002:00001190       __real@bfe0000000000000    00430190     Square.obj
 0002:000011ac       ??_7TrimeshFace@@6B@       004301ac     trimesh.obj
 0002:000011cc       ??_C@_0CI@DJLMOCOM@Bad?5Trimesh?3?5Wrong?5number?5of?5mat@ 004301cc     trimesh.obj
 0002:000011f4       ??_C@_0CG@CGLEALMC@Bad?5Trimesh?3?5Wrong?5number?5of?5nor@ 004301f4     trimesh.obj
 0002:0000121c       __real@00800000            0043021c     trimesh.obj
 0002:00001220       __real@bf800000            00430220     trimesh.obj
 0002:00001228       __real@8@00000000000000000000 00430228     fltkd:Fl.obj
 0002:00001230       __real@8@4008fa00000000000000 00430230     fltkd:Fl.obj
 0002:00001238       __real@8@bffaccccccccccccd000 00430238     fltkd:Fl.obj
 0002:00001240       ??_7Fl_Window@@6B@         00430240     fltkd:Fl.obj
 0002:0000125c       ??_7Fl_Box@@6B@            0043025c     fltkd:fl_ask.obj
 0002:0000126c       ??_7Fl_Return_Button@@6B@  0043026c     fltkd:fl_ask.obj
 0002:0000127c       ??_7Fl_Widget@@6B@         0043027c     fltkd:Fl_Widget.obj
 0002:0000128c       ??_7Fl_Menu_@@6B@          0043028c     fltkd:Fl_Menu_.obj
 0002:000012a8       ??_7Fl_Valuator@@6B@       004302a8     fltkd:Fl_Valuator.obj
 0002:000012c0       __real@8@4005c800000000000000 004302c0     fltkd:Fl_Valuator.obj
 0002:000012c8       __real@8@3ffe8000000000000000 004302c8     fltkd:Fl_Valuator.obj
 0002:000012d0       ??_7Fl_Value_Slider@@6B@   004302d0     fltkd:Fl_Value_Slider.obj
 0002:000012e8       ??_7Fl_Button@@6B@         004302e8     fltkd:Fl_Button.obj
 0002:000012f8       ??_7FCW@@6B@               004302f8     fltkd:fl_file_chooser.obj
 0002:00001314       ??_7FCB@@6B@               00430314     fltkd:fl_file_chooser.obj
 0002:00001354       ??_7Fl_Group@@6B@          00430354     fltkd:Fl_Group.obj
 0002:00001468       __real@8@401483126e978d4fe000 00430468     fltkd:Fl_x.obj
 0002:00001470       __real@8@3ff583126e978d4fe000 00430470     fltkd:Fl_x.obj
 0002:0000147c       ??_7Fl_Input@@6B@          0043047c     fltkd:Fl_Input.obj
 0002:0000148c       ??_7Fl_Input_@@6B@         0043048c     fltkd:Fl_Input_.obj
 0002:0000149c       __real@4@3fff8000000000000000 0043049c     fltkd:fl_color.obj
 0002:000014a0       ??_7menutitle@@6B@         004304a0     fltkd:Fl_Menu.obj
 0002:000014bc       ??_7menuwindow@@6B@        004304bc     fltkd:Fl_Menu.obj
 0002:000014d8       ??_7Fl_Menu_Window@@6B@    004304d8     fltkd:Fl_Menu.obj
 0002:000014f4       ??_7Fl_Single_Window@@6B@  004304f4     fltkd:Fl_Menu.obj
 0002:00001510       ??_7Fl_Slider@@6B@         00430510     fltkd:Fl_Slider.obj
 0002:00001528       __real@8@3fff8000000000000000 00430528     fltkd:Fl_Slider.obj
 0002:00001530       __real@8@40008000000000000000 00430530     fltkd:fl_draw.obj
 0002:00001538       ??_7Fl_Browser_@@6B@       00430538     fltkd:Fl_Browser_.obj
 0002:00001578       ??_7Fl_Scrollbar@@6B@      00430578     fltkd:Fl_Scrollbar.obj
 0002:00001594       ??_7type_info@@6B@         00430594     MSVCRT:ti_inst.obj
 0002:000015a0       __load_config_used         004305a0     MSVCRT:loadcfg.obj
 0002:000015e8       ??_R4error_category@std@@6B@ 004305e8     main.obj
 0002:000015fc       ??_R3error_category@std@@8 004305fc     main.obj
 0002:0000160c       ??_R2error_category@std@@8 0043060c     main.obj
 0002:00001614       ??_R1A@?0A@EA@error_category@std@@8 00430614     main.obj
 0002:00001630       ??_R4_Generic_error_category@std@@6B@ 00430630     main.obj
 0002:00001644       ??_R3_Generic_error_category@std@@8 00430644     main.obj
 0002:00001654       ??_R2_Generic_error_category@std@@8 00430654     main.obj
 0002:00001660       ??_R1A@?0A@EA@_Generic_error_category@std@@8 00430660     main.obj
 0002:0000167c       ??_R4_Iostream_error_category@std@@6B@ 0043067c     main.obj
 0002:00001690       ??_R3_Iostream_error_category@std@@8 00430690     main.obj
 0002:000016a0       ??_R2_Iostream_error_category@std@@8 004306a0     main.obj
 0002:000016b0       ??_R1A@?0A@EA@_Iostream_error_category@std@@8 004306b0     main.obj
 0002:000016cc       ??_R4_System_error_category@std@@6B@ 004306cc     main.obj
 0002:000016e0       ??_R3_System_error_category@std@@8 004306e0     main.obj
 0002:000016f0       ??_R2_System_error_category@std@@8 004306f0     main.obj
 0002:00001700       ??_R1A@?0A@EA@_System_error_category@std@@8 00430700     main.obj
 0002:0000171c       ??_R4Fl_Gl_Window@@6B@     0043071c     TraceGLWindow.obj
 0002:00001730       ??_R3Fl_Gl_Window@@8       00430730     TraceGLWindow.obj
 0002:00001740       ??_R2Fl_Gl_Window@@8       00430740     TraceGLWindow.obj
 0002:00001754       ??_R1A@?0A@EA@Fl_Gl_Window@@8 00430754     TraceGLWindow.obj
 0002:00001770       ??_R1A@?0A@EA@Fl_Window@@8 00430770     TraceGLWindow.obj
 0002:0000178c       ??_R3Fl_Window@@8          0043078c     TraceGLWindow.obj
 0002:0000179c       ??_R2Fl_Window@@8          0043079c     TraceGLWindow.obj
 0002:000017ac       ??_R1A@?0A@EA@Fl_Group@@8  004307ac     TraceGLWindow.obj
 0002:000017c8       ??_R3Fl_Group@@8           004307c8     TraceGLWindow.obj
 0002:000017d8       ??_R2Fl_Group@@8           004307d8     TraceGLWindow.obj
 0002:000017e4       ??_R1A@?0A@EA@Fl_Widget@@8 004307e4     TraceGLWindow.obj
 0002:00001800       ??_R3Fl_Widget@@8          00430800     TraceGLWindow.obj
 0002:00001810       ??_R2Fl_Widget@@8          00430810     TraceGLWindow.obj
 0002:00001818       ??_R4TraceGLWindow@@6B@    00430818     TraceGLWindow.obj
 0002:0000182c       ??_R3TraceGLWindow@@8      0043082c     TraceGLWindow.obj
 0002:0000183c       ??_R2TraceGLWindow@@8      0043083c     TraceGLWindow.obj
 0002:00001854       ??_R1A@?0A@EA@TraceGLWindow@@8 00430854     TraceGLWindow.obj
 0002:00001870       ??_R4Fl_Menu_Bar@@6B@      00430870     TraceUI.obj
 0002:00001884       ??_R3Fl_Menu_Bar@@8        00430884     TraceUI.obj
 0002:00001894       ??_R2Fl_Menu_Bar@@8        00430894     TraceUI.obj
 0002:000018a4       ??_R1A@?0A@EA@Fl_Menu_Bar@@8 004308a4     TraceUI.obj
 0002:000018c0       ??_R1A@?0A@EA@Fl_Menu_@@8  004308c0     TraceUI.obj
 0002:000018dc       ??_R3Fl_Menu_@@8           004308dc     TraceUI.obj
 0002:000018ec       ??_R2Fl_Menu_@@8           004308ec     TraceUI.obj
 0002:000018f8       ??_R4Obj@@6B@              004308f8     parse.obj
 0002:0000190c       ??_R3Obj@@8                0043090c     parse.obj
 0002:0000191c       ??_R2Obj@@8                0043091c     parse.obj
 0002:00001924       ??_R1A@?0A@EA@Obj@@8       00430924     parse.obj
 0002:00001940       ??_R4ScalarObj@@6B@        00430940     parse.obj
 0002:00001954       ??_R3ScalarObj@@8          00430954     parse.obj
 0002:00001964       ??_R2ScalarObj@@8          00430964     parse.obj
 0002:00001970       ??_R1A@?0A@EA@ScalarObj@@8 00430970     parse.obj
 0002:0000198c       ??_R4BooleanObj@@6B@       0043098c     parse.obj
 0002:000019a0       ??_R3BooleanObj@@8         004309a0     parse.obj
 0002:000019b0       ??_R2BooleanObj@@8         004309b0     parse.obj
 0002:000019bc       ??_R1A@?0A@EA@BooleanObj@@8 004309bc     parse.obj
 0002:000019d8       ??_R4IdObj@@6B@            004309d8     parse.obj
 0002:000019ec       ??_R3IdObj@@8              004309ec     parse.obj
 0002:000019fc       ??_R2IdObj@@8              004309fc     parse.obj
 0002:00001a08       ??_R1A@?0A@EA@IdObj@@8     00430a08     parse.obj
 0002:00001a24       ??_R4StringObj@@6B@        00430a24     parse.obj
 0002:00001a38       ??_R3StringObj@@8          00430a38     parse.obj
 0002:00001a48       ??_R2StringObj@@8          00430a48     parse.obj
 0002:00001a54       ??_R1A@?0A@EA@StringObj@@8 00430a54     parse.obj
 0002:00001a70       ??_R4TupleObj@@6B@         00430a70     parse.obj
 0002:00001a84       ??_R3TupleObj@@8           00430a84     parse.obj
 0002:00001a94       ??_R2TupleObj@@8           00430a94     parse.obj
 0002:00001aa0       ??_R1A@?0A@EA@TupleObj@@8  00430aa0     parse.obj
 0002:00001abc       ??_R4DictObj@@6B@          00430abc     parse.obj
 0002:00001ad0       ??_R3DictObj@@8            00430ad0     parse.obj
 0002:00001ae0       ??_R2DictObj@@8            00430ae0     parse.obj
 0002:00001aec       ??_R1A@?0A@EA@DictObj@@8   00430aec     parse.obj
 0002:00001b08       ??_R4NamedObj@@6B@         00430b08     parse.obj
 0002:00001b1c       ??_R3NamedObj@@8           00430b1c     parse.obj
 0002:00001b2c       ??_R2NamedObj@@8           00430b2c     parse.obj
 0002:00001b38       ??_R1A@?0A@EA@NamedObj@@8  00430b38     parse.obj
 0002:00001b54       ??_R4?$basic_filebuf@DU?$char_traits@D@std@@@std@@6B@ 00430b54     read.obj
 0002:00001b68       ??_R3?$basic_filebuf@DU?$char_traits@D@std@@@std@@8 00430b68     read.obj
 0002:00001b78       ??_R2?$basic_filebuf@DU?$char_traits@D@std@@@std@@8 00430b78     read.obj
 0002:00001b84       ??_R1A@?0A@EA@?$basic_filebuf@DU?$char_traits@D@std@@@std@@8 00430b84     read.obj
 0002:00001ba0       ??_R1A@?0A@EA@?$basic_streambuf@DU?$char_traits@D@std@@@std@@8 00430ba0     read.obj
 0002:00001bbc       ??_R3?$basic_streambuf@DU?$char_traits@D@std@@@std@@8 00430bbc     read.obj
 0002:00001bcc       ??_R2?$basic_streambuf@DU?$char_traits@D@std@@@std@@8 00430bcc     read.obj
 0002:00001bd4       ??_R4?$basic_ifstream@DU?$char_traits@D@std@@@std@@6B@ 00430bd4     read.obj
 0002:00001be8       ??_R3?$basic_ifstream@DU?$char_traits@D@std@@@std@@8 00430be8     read.obj
 0002:00001bf8       ??_R2?$basic_ifstream@DU?$char_traits@D@std@@@std@@8 00430bf8     read.obj
 0002:00001c10       ??_R1A@?0A@EA@?$basic_ifstream@DU?$char_traits@D@std@@@std@@8 00430c10     read.obj
 0002:00001c2c       ??_R1A@?0A@EA@?$basic_istream@DU?$char_traits@D@std@@@std@@8 00430c2c     read.obj
 0002:00001c48       ??_R3?$basic_istream@DU?$char_traits@D@std@@@std@@8 00430c48     read.obj
 0002:00001c58       ??_R2?$basic_istream@DU?$char_traits@D@std@@@std@@8 00430c58     read.obj
 0002:00001c6c       ??_R1A@A@3FA@?$basic_ios@DU?$char_traits@D@std@@@std@@8 00430c6c     read.obj
 0002:00001c88       ??_R3?$basic_ios@DU?$char_traits@D@std@@@std@@8 00430c88     read.obj
 0002:00001c98       ??_R2?$basic_ios@DU?$char_traits@D@std@@@std@@8 00430c98     read.obj
 0002:00001ca8       ??_R1A@?0A@EA@?$basic_ios@DU?$char_traits@D@std@@@std@@8 00430ca8     read.obj
 0002:00001cc4       ??_R1A@?0A@EA@ios_base@std@@8 00430cc4     read.obj
 0002:00001ce0       ??_R3ios_base@std@@8       00430ce0     read.obj
 0002:00001cf0       ??_R2ios_base@std@@8       00430cf0     read.obj
 0002:00001cfc       ??_R17?0A@EA@?$_Iosb@H@std@@8 00430cfc     read.obj
 0002:00001d18       ??_R3?$_Iosb@H@std@@8      00430d18     read.obj
 0002:00001d28       ??_R2?$_Iosb@H@std@@8      00430d28     read.obj
 0002:00001d30       ??_R1A@?0A@EA@?$_Iosb@H@std@@8 00430d30     read.obj
 0002:00001d4c       ??_R1A@A@3EA@ios_base@std@@8 00430d4c     read.obj
 0002:00001d68       ??_R17A@3EA@?$_Iosb@H@std@@8 00430d68     read.obj
 0002:00001d84       ??_R4strstreambuf@std@@6B@ 00430d84     read.obj
 0002:00001d98       ??_R3strstreambuf@std@@8   00430d98     read.obj
 0002:00001da8       ??_R2strstreambuf@std@@8   00430da8     read.obj
 0002:00001db4       ??_R1A@?0A@EA@strstreambuf@std@@8 00430db4     read.obj
 0002:00001dd0       ??_R4ostrstream@std@@6B@   00430dd0     read.obj
 0002:00001de4       ??_R3ostrstream@std@@8     00430de4     read.obj
 0002:00001df4       ??_R2ostrstream@std@@8     00430df4     read.obj
 0002:00001e0c       ??_R1A@?0A@EA@ostrstream@std@@8 00430e0c     read.obj
 0002:00001e28       ??_R1A@?0A@EA@?$basic_ostream@DU?$char_traits@D@std@@@std@@8 00430e28     read.obj
 0002:00001e44       ??_R3?$basic_ostream@DU?$char_traits@D@std@@@std@@8 00430e44     read.obj
 0002:00001e54       ??_R2?$basic_ostream@DU?$char_traits@D@std@@@std@@8 00430e54     read.obj
 0002:00001e68       ??_R4Scene@@6B@            00430e68     read.obj
 0002:00001e7c       ??_R3Scene@@8              00430e7c     read.obj
 0002:00001e8c       ??_R2Scene@@8              00430e8c     read.obj
 0002:00001e94       ??_R1A@?0A@EA@Scene@@8     00430e94     read.obj
 0002:00001eb0       ??_R4Material@@6B@         00430eb0     read.obj
 0002:00001ec4       ??_R3Material@@8           00430ec4     read.obj
 0002:00001ed4       ??_R2Material@@8           00430ed4     read.obj
 0002:00001edc       ??_R1A@?0A@EA@Material@@8  00430edc     read.obj
 0002:00001ef8       ??_R3SceneObject@@8        00430ef8     read.obj
 0002:00001f08       ??_R2SceneObject@@8        00430f08     read.obj
 0002:00001f18       ??_R1A@?0A@EA@SceneObject@@8 00430f18     read.obj
 0002:00001f34       ??_R1A@?0A@EA@Geometry@@8  00430f34     read.obj
 0002:00001f50       ??_R3Geometry@@8           00430f50     read.obj
 0002:00001f60       ??_R2Geometry@@8           00430f60     read.obj
 0002:00001f6c       ??_R1A@?0A@EA@SceneElement@@8 00430f6c     read.obj
 0002:00001f88       ??_R3SceneElement@@8       00430f88     read.obj
 0002:00001f98       ??_R2SceneElement@@8       00430f98     read.obj
 0002:00001fa0       ??_R3Light@@8              00430fa0     read.obj
 0002:00001fb0       ??_R2Light@@8              00430fb0     read.obj
 0002:00001fbc       ??_R1A@?0A@EA@Light@@8     00430fbc     read.obj
 0002:00001fd8       ??_R4SceneElement@@6B@     00430fd8     read.obj
 0002:00001fec       ??_R4MaterialSceneObject@@6B@ 00430fec     read.obj
 0002:00002000       ??_R3MaterialSceneObject@@8 00431000     read.obj
 0002:00002010       ??_R2MaterialSceneObject@@8 00431010     read.obj
 0002:00002024       ??_R1A@?0A@EA@MaterialSceneObject@@8 00431024     read.obj
 0002:00002040       ??_R4Trimesh@@6B@          00431040     read.obj
 0002:00002054       ??_R3Trimesh@@8            00431054     read.obj
 0002:00002064       ??_R2Trimesh@@8            00431064     read.obj
 0002:0000207c       ??_R1A@?0A@EA@Trimesh@@8   0043107c     read.obj
 0002:00002098       ??_R4Box@@6B@              00431098     read.obj
 0002:000020ac       ??_R3Box@@8                004310ac     read.obj
 0002:000020bc       ??_R2Box@@8                004310bc     read.obj
 0002:000020d4       ??_R1A@?0A@EA@Box@@8       004310d4     read.obj
 0002:000020f0       ??_R4Cone@@6B@             004310f0     read.obj
 0002:00002104       ??_R3Cone@@8               00431104     read.obj
 0002:00002114       ??_R2Cone@@8               00431114     read.obj
 0002:0000212c       ??_R1A@?0A@EA@Cone@@8      0043112c     read.obj
 0002:00002148       ??_R4Cylinder@@6B@         00431148     read.obj
 0002:0000215c       ??_R3Cylinder@@8           0043115c     read.obj
 0002:0000216c       ??_R2Cylinder@@8           0043116c     read.obj
 0002:00002184       ??_R1A@?0A@EA@Cylinder@@8  00431184     read.obj
 0002:000021a0       ??_R4Sphere@@6B@           004311a0     read.obj
 0002:000021b4       ??_R3Sphere@@8             004311b4     read.obj
 0002:000021c4       ??_R2Sphere@@8             004311c4     read.obj
 0002:000021dc       ??_R1A@?0A@EA@Sphere@@8    004311dc     read.obj
 0002:000021f8       ??_R4Square@@6B@           004311f8     read.obj
 0002:0000220c       ??_R3Square@@8             0043120c     read.obj
 0002:0000221c       ??_R2Square@@8             0043121c     read.obj
 0002:00002234       ??_R1A@?0A@EA@Square@@8    00431234     read.obj
 0002:00002250       ??_R4DirectionalLight@@6B@ 00431250     read.obj
 0002:00002264       ??_R3DirectionalLight@@8   00431264     read.obj
 0002:00002274       ??_R2DirectionalLight@@8   00431274     read.obj
 0002:00002284       ??_R1A@?0A@EA@DirectionalLight@@8 00431284     read.obj
 0002:000022a0       ??_R4PointLight@@6B@       004312a0     read.obj
 0002:000022b4       ??_R3PointLight@@8         004312b4     read.obj
 0002:000022c4       ??_R2PointLight@@8         004312c4     read.obj
 0002:000022d4       ??_R1A@?0A@EA@PointLight@@8 004312d4     read.obj
 0002:000022f0       ??_R4TrimeshFace@@6B@      004312f0     trimesh.obj
 0002:00002304       ??_R3TrimeshFace@@8        00431304     trimesh.obj
 0002:00002314       ??_R2TrimeshFace@@8        00431314     trimesh.obj
 0002:0000232c       ??_R1A@?0A@EA@TrimeshFace@@8 0043132c     trimesh.obj
 0002:00002348       ??_R4type_info@@6B@        00431348     MSVCRT:ti_inst.obj
 0002:0000235c       ??_R3type_info@@8          0043135c     MSVCRT:ti_inst.obj
 0002:0000236c       ??_R2type_info@@8          0043136c     MSVCRT:ti_inst.obj
 0002:00002374       ??_R1A@?0A@EA@type_info@@8 00431374     MSVCRT:ti_inst.obj
 0002:00002390       ___rtc_iaa                 00431390     MSVCRT:initsect.obj
 0002:00002394       ___rtc_izz                 00431394     MSVCRT:initsect.obj
 0002:00002398       ___rtc_taa                 00431398     MSVCRT:initsect.obj
 0002:0000239c       ___rtc_tzz                 0043139c     MSVCRT:initsect.obj
 0002:00002b40       __TI3?AVObjTypeMismatch@@  00431b40     parse.obj
 0002:00002b50       __CTA3?AVObjTypeMismatch@@ 00431b50     parse.obj
 0002:00002b60       __CT??_R0?AVObjTypeMismatch@@@8??0ObjTypeMismatch@@QAE@ABV0@@Z24 00431b60     parse.obj
 0002:00002b7c       __CT??_R0?AVParseError@@@8??0ParseError@@QAE@ABV0@@Z24 00431b7c     parse.obj
 0002:00002b98       __CT??_R0?AVException@@@8??0Exception@@QAE@ABV0@@Z24 00431b98     parse.obj
 0002:00002bb4       __TI2?AVParseError@@       00431bb4     parse.obj
 0002:00002bc4       __CTA2?AVParseError@@      00431bc4     parse.obj
 0002:00003388       __CT??_R0?AVexception@std@@@8??0exception@std@@QAE@ABV01@@Z12 00432388     read.obj
 0002:000033a4       __TI2?AVbad_cast@std@@     004323a4     read.obj
 0002:000033b4       __CTA2?AVbad_cast@std@@    004323b4     read.obj
 0002:000033c0       __CT??_R0?AVbad_cast@std@@@8??0bad_cast@std@@QAE@ABV01@@Z12 004323c0     read.obj
 0002:000033dc       __TI1?AVSingularMatrixException@@ 004323dc     vecmath.obj
 0002:000033ec       __CTA1?AVSingularMatrixException@@ 004323ec     vecmath.obj
 0002:000033f4       __CT??_R0?AVSingularMatrixException@@@81 004323f4     vecmath.obj
 0002:00003ba4       __IMPORT_DESCRIPTOR_WSOCK32 00432ba4     wsock32:WSOCK32.dll
 0002:00003bb8       __IMPORT_DESCRIPTOR_OPENGL32 00432bb8     opengl32:OPENGL32.dll
 0002:00003bcc       __IMPORT_DESCRIPTOR_KERNEL32 00432bcc     kernel32:KERNEL32.dll
 0002:00003be0       __IMPORT_DESCRIPTOR_USER32 00432be0     user32:USER32.dll
 0002:00003bf4       __IMPORT_DESCRIPTOR_GDI32  00432bf4     gdi32:GDI32.dll
 0002:00003c08       __IMPORT_DESCRIPTOR_MSVCR120 00432c08     MSVCRT:MSVCR120.dll
 0002:00003c1c       __IMPORT_DESCRIPTOR_MSVCP120 00432c1c     msvcprt:MSVCP120.dll
 0002:00003c30       __IMPORT_DESCRIPTOR_MSVCR120D 00432c30     MSVCRTD:MSVCR120D.dll
 0002:00003c44       __NULL_IMPORT_DESCRIPTOR   00432c44     wsock32:WSOCK32.dll
 0003:00000004       ?g_width@@3HA              00435004     main.obj
 0003:00000008       ?_Generic_object@?$_Error_objects@H@std@@2V_Generic_error_category@2@A 00435008     main.obj
 0003:0000000c       ?_Iostream_object@?$_Error_objects@H@std@@2V_Iostream_error_category@2@A 0043500c     main.obj
 0003:00000010       ?_System_object@?$_Error_objects@H@std@@2V_System_error_category@2@A 00435010     main.obj
 0003:00000018       ?menuitems@TraceUI@@0PAUFl_Menu_Item@@A 00435018     TraceUI.obj
 0003:000000f0       ?e_text@Fl@@2PADA          004350f0     fltkd:Fl.obj
 0003:000000fc       ?fl_message_size_@@3EA     004350fc     fltkd:fl_ask.obj
 0003:00000100       ?fl_no@@3PBDB              00435100     fltkd:fl_ask.obj
 0003:00000104       ?fl_yes@@3PBDB             00435104     fltkd:fl_ask.obj
 0003:00000108       ?fl_ok@@3PBDB              00435108     fltkd:fl_ask.obj
 0003:0000010c       ?fl_cancel@@3PBDB          0043510c     fltkd:fl_ask.obj
 0003:00000140       ?atclose@Fl@@2P6AXPAVFl_Window@@PAX@ZA 00435140     fltkd:Fl_Window.obj
 0003:00000180       ?FL_NORMAL_SIZE@@3HA       00435180     fltkd:Fl_Widget.obj
 0003:00000280       ?fl_window@@3PAUHWND__@@A  00435280     fltkd:Fl_x.obj
 0003:00000598       ?warning@Fl@@2P6AXPBDZZA   00435598     fltkd:Fl_abort.obj
 0003:0000059c       ?error@Fl@@2P6AXPBDZZA     0043559c     fltkd:Fl_abort.obj
 0003:000005a0       ?fatal@Fl@@2P6AXPBDZZA     004355a0     fltkd:Fl_abort.obj
 0003:00000be8       ?fl_fonts@@3PAUFl_Fontdesc@@A 00435be8     fltkd:fl_font.obj
 0003:00000d08       ?scrollbar_width_@Fl_Browser_@@0HA 00435d08     fltkd:Fl_Browser_.obj
 0003:00000d20       ___security_cookie         00435d20     MSVCRT:gs_cookie.obj
 0003:00000d24       ___security_cookie_complement 00435d24     MSVCRT:gs_cookie.obj
 0003:00000d30       ___defaultmatherr          00435d30     MSVCRT:merr.obj
 0003:00000d34       ___globallocalestatus      00435d34     MSVCRT:xthdloc.obj
 0003:00000d38       ___native_dllmain_reason   00435d38     MSVCRT:natstart.obj
 0003:00000d60       ??_R0?AVerror_category@std@@@8 00435d60     main.obj
 0003:00000d84       ??_R0?AV_Generic_error_category@std@@@8 00435d84     main.obj
 0003:00000db0       ??_R0?AV_Iostream_error_category@std@@@8 00435db0     main.obj
 0003:00000ddc       ??_R0?AV_System_error_category@std@@@8 00435ddc     main.obj
 0003:00000e08       ??_R0?AVParseError@@@8     00435e08     RayTracer.obj
 0003:00000e24       ??_R0?AVFl_Gl_Window@@@8   00435e24     TraceGLWindow.obj
 0003:00000e40       ??_R0?AVFl_Window@@@8      00435e40     TraceGLWindow.obj
 0003:00000e58       ??_R0?AVFl_Group@@@8       00435e58     TraceGLWindow.obj
 0003:00000e70       ??_R0?AVFl_Widget@@@8      00435e70     TraceGLWindow.obj
 0003:00000e88       ??_R0?AVTraceGLWindow@@@8  00435e88     TraceGLWindow.obj
 0003:00000ea4       ??_R0?AVFl_Menu_Bar@@@8    00435ea4     TraceUI.obj
 0003:00000ec0       ??_R0?AVFl_Menu_@@@8       00435ec0     TraceUI.obj
 0003:00000ed8       ??_R0?AVObjTypeMismatch@@@8 00435ed8     parse.obj
 0003:00000ef8       ??_R0?AVException@@@8      00435ef8     parse.obj
 0003:00000f10       ??_R0?AVObj@@@8            00435f10     parse.obj
 0003:00000f24       ??_R0?AVScalarObj@@@8      00435f24     parse.obj
 0003:00000f3c       ??_R0?AVBooleanObj@@@8     00435f3c     parse.obj
 0003:00000f58       ??_R0?AVIdObj@@@8          00435f58     parse.obj
 0003:00000f6c       ??_R0?AVStringObj@@@8      00435f6c     parse.obj
 0003:00000f84       ??_R0?AVTupleObj@@@8       00435f84     parse.obj
 0003:00000f9c       ??_R0?AVDictObj@@@8        00435f9c     parse.obj
 0003:00000fb4       ??_R0?AVNamedObj@@@8       00435fb4     parse.obj
 0003:00000fcc       ??_R0?AVexception@std@@@8  00435fcc     read.obj
 0003:00000fe8       ??_R0?AVbad_cast@std@@@8   00435fe8     read.obj
 0003:00001004       ??_R0?AV?$basic_filebuf@DU?$char_traits@D@std@@@std@@@8 00436004     read.obj
 0003:00001040       ??_R0?AV?$basic_streambuf@DU?$char_traits@D@std@@@std@@@8 00436040     read.obj
 0003:0000107c       ??_R0?AV?$basic_ifstream@DU?$char_traits@D@std@@@std@@@8 0043607c     read.obj
 0003:000010b8       ??_R0?AV?$basic_istream@DU?$char_traits@D@std@@@std@@@8 004360b8     read.obj
 0003:000010f4       ??_R0?AV?$basic_ios@DU?$char_traits@D@std@@@std@@@8 004360f4     read.obj
 0003:0000112c       ??_R0?AVios_base@std@@@8   0043612c     read.obj
 0003:00001148       ??_R0?AV?$_Iosb@H@std@@@8  00436148     read.obj
 0003:00001164       ??_R0?AVstrstreambuf@std@@@8 00436164     read.obj
 0003:00001184       ??_R0?AVostrstream@std@@@8 00436184     read.obj
 0003:000011a4       ??_R0?AV?$basic_ostream@DU?$char_traits@D@std@@@std@@@8 004361a4     read.obj
 0003:000011e0       ??_R0?AVScene@@@8          004361e0     read.obj
 0003:000011f4       ??_R0?AVMaterial@@@8       004361f4     read.obj
 0003:0000120c       ??_R0?AVSceneObject@@@8    0043620c     read.obj
 0003:00001228       ??_R0?AVGeometry@@@8       00436228     read.obj
 0003:00001240       ??_R0?AVSceneElement@@@8   00436240     read.obj
 0003:0000125c       ??_R0?AVLight@@@8          0043625c     read.obj
 0003:00001270       ??_R0?AVMaterialSceneObject@@@8 00436270     read.obj
 0003:00001294       ??_R0?AVTrimesh@@@8        00436294     read.obj
 0003:000012ac       ??_R0?AVBox@@@8            004362ac     read.obj
 0003:000012c0       ??_R0?AVCone@@@8           004362c0     read.obj
 0003:000012d4       ??_R0?AVCylinder@@@8       004362d4     read.obj
 0003:000012ec       ??_R0?AVSphere@@@8         004362ec     read.obj
 0003:00001304       ??_R0?AVSquare@@@8         00436304     read.obj
 0003:0000131c       ??_R0?AVDirectionalLight@@@8 0043631c     read.obj
 0003:0000133c       ??_R0?AVPointLight@@@8     0043633c     read.obj
 0003:00001358       ??_R0?AVSingularMatrixException@@@8 00436358     vecmath.obj
 0003:00001380       ??_R0?AVTrimeshFace@@@8    00436380     trimesh.obj
 0003:0000139c       ??_R0?AVtype_info@@@8      0043639c     MSVCRT:ti_inst.obj
 0003:000013b8       ?optarg@@3PADA             004363b8     getopt.obj
 0003:000013bc       ?optind@@3HA               004363bc     getopt.obj
 0003:000013c0       ?opterr@@3HA               004363c0     getopt.obj
 0003:000013c4       ?optopt@@3HA               004363c4     getopt.obj
 0003:000013c8       ?theRayTracer@@3PAVRayTracer@@A 004363c8     main.obj
 0003:000013cc       ?traceUI@@3PAVTraceUI@@A   004363cc     main.obj
 0003:000013d0       ?recursion_depth@@3HA      004363d0     main.obj
 0003:000013d4       ?g_height@@3HA             004363d4     main.obj
 0003:000013d8       ?bReport@@3_NA             004363d8     main.obj
 0003:000013dc       ?progname@@3PADA           004363dc     main.obj
 0003:000013e0       ?rayName@@3PADA            004363e0     main.obj
 0003:000013e4       ?imgName@@3PADA            004363e4     main.obj
 0003:000013f0       ?id@?$num_put@DV?$back_insert_iterator@V?$basic_string@DU?$char_traits@D@std@@V?$allocator@D@2@@std@@@std@@@std@@2V0locale@2@A 004363f0     RayTracer.obj
 0003:000013f4       ?id@?$num_put@_WV?$back_insert_iterator@V?$basic_string@_WU?$char_traits@_W@std@@V?$allocator@_W@2@@std@@@std@@@std@@2V0locale@2@A 004363f4     RayTracer.obj
 0003:00001400       ?bmfh@@3UBMP_BITMAPFILEHEADER@@A 00436400     bitmap.obj
 0003:00001410       ?bmih@@3UBMP_BITMAPINFOHEADER@@A 00436410     bitmap.obj
 0003:00001440       ?_Stinit@?1??_Init@?$basic_filebuf@DU?$char_traits@D@std@@@std@@IAEXPAU_iobuf@@W4_Initfl@23@@Z@4HA 00436440     read.obj
 0003:00001444       ?_Psave@?$_Facetptr@V?$codecvt@DDH@std@@@std@@2PBVfacet@locale@2@B 00436444     read.obj
 0003:00001460       ?idle@Fl@@2P6AXXZA         00436460     fltkd:Fl.obj
 0003:00001464       ?belowmouse_@Fl@@2PAVFl_Widget@@A 00436464     fltkd:Fl.obj
 0003:0000146c       ?fl_oldfocus@@3PAVFl_Widget@@A 0043646c     fltkd:Fl.obj
 0003:00001470       ?e_x@Fl@@2HA               00436470     fltkd:Fl.obj
 0003:00001480       ?focus_@Fl@@2PAVFl_Widget@@A 00436480     fltkd:Fl.obj
 0003:00001484       ?grab_@Fl@@2PAVFl_Window@@A 00436484     fltkd:Fl.obj
 0003:00001488       ?e_x_root@Fl@@2HA          00436488     fltkd:Fl.obj
 0003:00001490       ?fl_xfocus@@3PAVFl_Window@@A 00436490     fltkd:Fl.obj
 0003:00001494       ?fl_xmousewin@@3PAVFl_Window@@A 00436494     fltkd:Fl.obj
 0003:00001498       ?modal_@Fl@@2PAVFl_Window@@A 00436498     fltkd:Fl.obj
 0003:0000149c       ?e_is_click@Fl@@2HA        0043649c     fltkd:Fl.obj
 0003:000014a0       ?e_y_root@Fl@@2HA          004364a0     fltkd:Fl.obj
 0003:000014ac       ?pushed_@Fl@@2PAVFl_Widget@@A 004364ac     fltkd:Fl.obj
 0003:000014b4       ?e_y@Fl@@2HA               004364b4     fltkd:Fl.obj
 0003:000014b8       ?e_length@Fl@@2HA          004364b8     fltkd:Fl.obj
 0003:000014c0       ?e_keysym@Fl@@2HA          004364c0     fltkd:Fl.obj
 0003:000014c4       ?first@Fl_X@@2PAV1@A       004364c4     fltkd:Fl.obj
 0003:000014c8       ?damage_@Fl@@2HA           004364c8     fltkd:Fl.obj
 0003:000014cc       ?selection_owner_@Fl@@2PAVFl_Widget@@A 004364cc     fltkd:Fl.obj
 0003:000014d4       ?e_clicks@Fl@@2HA          004364d4     fltkd:Fl.obj
 0003:000014d8       ?e_state@Fl@@2HA           004364d8     fltkd:Fl.obj
 0003:00001500       ?fl_message_font_@@3EA     00436500     fltkd:fl_ask.obj
 0003:00001504       ?fl_overlay@@3EA           00436504     fltkd:Fl_Gl_Window.obj
 0003:00001508       ?fl_overlay_depth@@3HA     00436508     fltkd:Fl_Gl_Window.obj
 0003:0000156c       ?fl_menu_array_owner@@3PAVFl_Menu_@@A 0043656c     fltkd:Fl_Menu_.obj
 0003:00001578       ?fl_file_chooser_data@@3PBDB 00436578     fltkd:fl_file_chooser.obj
 0003:0000157c       ?fl_file_chooser_button@@3PBDB 0043657c     fltkd:fl_file_chooser.obj
 0003:00001588       ?current_@Fl_Group@@0PAV1@A 00436588     fltkd:Fl_Group.obj
 0003:00001590       ?fl_display@@3PAUHINSTANCE__@@A 00436590     fltkd:Fl_x.obj
 0003:00001798       ?fl_default_cursor@@3PAUHICON__@@A 00436798     fltkd:Fl_x.obj
 0003:000017a0       ?fl_msg@@3UtagMSG@@A       004367a0     fltkd:Fl_x.obj
 0003:00001acc       ?current_@Fl_Window@@1PAV1@A 00436acc     fltkd:Fl_x.obj
 0003:00001ad0       ?fl_capture@@3PAUHWND__@@A 00436ad0     fltkd:Fl_x.obj
 0003:00001ae0       ?fl_disable_transient_for@@3HA 00436ae0     fltkd:Fl_x.obj
 0003:00001ae4       ?fl_show_iconic@@3DA       00436ae4     fltkd:Fl_x.obj
 0003:00001cf8       ?fl_gc@@3PAUHDC__@@A       00436cf8     fltkd:Fl_x.obj
 0003:00001d00       ?compose_state@Fl@@2HA     00436d00     fltkd:Fl_compose.obj
 0003:00001d30       ?fl_clip_state_number@@3HA 00436d30     fltkd:fl_rect.obj
 0003:00001d90       ?fl_current_xmap@@3PAUFl_XMap@@A 00436d90     fltkd:fl_color.obj
 0003:00001d94       ?fl_palette@@3PAUHPALETTE__@@A 00436d94     fltkd:fl_color.obj
 0003:00001d98       ?fl_xmap@@3PAUFl_XMap@@A   00436d98     fltkd:fl_color.obj
 0003:00002a64       ?fl_color_@@3W4Fl_Color@@A 00437a64     fltkd:fl_color.obj
 0003:00002a6c       ?tmppen@@3PAUHPEN__@@A     00437a6c     fltkd:fl_color.obj
 0003:00002a70       ?tmpbrush@@3PAUHBRUSH__@@A 00437a70     fltkd:fl_color.obj
 0003:00002aa4       ?fl_draw_shortcut@@3DA     00437aa4     fltkd:fl_draw.obj
 0003:00002aa8       ?fl_font_@@3HA             00437aa8     fltkd:fl_font.obj
 0003:00002aac       ?fl_size_@@3HA             00437aac     fltkd:fl_font.obj
 0003:00002ab0       ?fl_fontsize@@3PAVFl_FontSize@@A 00437ab0     fltkd:fl_font.obj
 0003:00002e50       __commode                  00437e50     MSVCRT:xncommod.obj
 0003:00002e54       __dowildcard               00437e54     MSVCRT:wildcard.obj
 0003:00002e58       __newmode                  00437e58     MSVCRT:_newmode.obj
 0003:00002e5c       __fmode                    00437e5c     MSVCRT:xtxtmode.obj
 0003:00002e68       ___native_startup_lock     00437e68     <common>
 0003:00002e6c       ___native_startup_state    00437e6c     <common>
 0003:00002e70       ___dyn_tls_init_callback   00437e70     <common>
 0003:00002e74       ___onexitend               00437e74     <common>
 0003:00002e78       ___onexitbegin             00437e78     <common>

 entry point at        0001:0002c01a

 Static symbols

 0001:0000a800       _$E29                      0040b800 f   fltkd:Fl_x.obj
 0001:000192b0       ??__E?_Generic_object@?$_Error_objects@H@std@@2V_Generic_error_category@2@A@@YAXXZ 0041a2b0 f   main.obj
 0001:000192c0       ??__E?_Iostream_object@?$_Error_objects@H@std@@2V_Iostream_error_category@2@A@@YAXXZ 0041a2c0 f   main.obj
 0001:000192d0       ??__E?_System_object@?$_Error_objects@H@std@@2V_System_error_category@2@A@@YAXXZ 0041a2d0 f   main.obj
 0001:000192dc       ??__E_Fac_tidy_reg@std@@YAXXZ 0041a2dc f   msvcprt:locale0_implib.obj
 0001:00019546       __catch$?_Copy@?$basic_string@DU?$char_traits@D@std@@V?$allocator@D@2@@std@@QAEXII@Z$0 0041a546 f i main.obj
 0001:00019583       __catch$?_Copy@?$basic_string@DU?$char_traits@D@std@@V?$allocator@D@2@@std@@QAEXII@Z$1 0041a583 f i main.obj
 0001:00019cdc       $LN19                      0041acdc     main.obj
 0001:00019cf0       $LN16                      0041acf0     main.obj
 0001:0001a0f3       __catch$?loadScene@RayTracer@@QAE_NPAD@Z$0 0041b0f3 f   RayTracer.obj
 0001:0001b92e       __catch$??$?6DU?$char_traits@D@std@@V?$allocator@D@1@@std@@YAAAV?$basic_ostream@DU?$char_traits@D@std@@@0@AAV10@ABV?$basic_string@DU?$char_traits@D@std@@V?$allocator@D@2@@0@@Z$0 0041c92e f i parse.obj
 0001:0001bb21       __catch$??$?6U?$char_traits@D@std@@@std@@YAAAV?$basic_ostream@DU?$char_traits@D@std@@@0@AAV10@D@Z$0 0041cb21 f i parse.obj
 0001:0001bd62       __catch$??$?6U?$char_traits@D@std@@@std@@YAAAV?$basic_ostream@DU?$char_traits@D@std@@@0@AAV10@PBD@Z$0 0041cd62 f i parse.obj
 0001:0001bf9f       __catch$??$_Buynode@AAU?$pair@$$CBV?$basic_string@DU?$char_traits@D@std@@V?$allocator@D@2@@std@@PAVObj@@@std@@@?$_Tree_buy@U?$pair@$$CBV?$basic_string@DU?$char_traits@D@std@@V?$allocator@D@2@@std@@PAVObj@@@std@@V?$allocator@U?$pair@$$CBV?$basic_string@DU?$char_traits@D@std@@V?$allocator@D@2@@std@@PAVObj@@@std@@@2@@std@@QAEPAU?$_Tree_node@U?$pair@$$CBV?$basic_string@DU?$char_traits@D@std@@V?$allocator@D@2@@std@@PAVObj@@@std@@PAX@1@AAU?$pair@$$CBV?$basic_string@DU?$char_traits@D@std@@V?$allocator@D@2@@std@@PAVObj@@@1@@Z$0 0041cf9f f i parse.obj
 0001:0001c0df       __catch$??$_Copy_nodes@U?$integral_constant@_N$0A@@std@@@?$_Tree@V?$_Tmap_traits@V?$basic_string@DU?$char_traits@D@std@@V?$allocator@D@2@@std@@PAVObj@@U?$less@V?$basic_string@DU?$char_traits@D@std@@V?$allocator@D@2@@std@@@2@V?$allocator@U?$pair@$$CBV?$basic_string@DU?$char_traits@D@std@@V?$allocator@D@2@@std@@PAVObj@@@std@@@2@$0A@@std@@@std@@IAEPAU?$_Tree_node@U?$pair@$$CBV?$basic_string@DU?$char_traits@D@std@@V?$allocator@D@2@@std@@PAVObj@@@std@@PAX@1@PAU21@0U?$integral_constant@_N$0A@@1@@Z$0 0041d0df f i parse.obj
 0001:0001c5ab       __catch$??$_Insert_nohint@AAU?$pair@$$CBV?$basic_string@DU?$char_traits@D@std@@V?$allocator@D@2@@std@@PAVMaterial@@@std@@PAU?$_Tree_node@U?$pair@$$CBV?$basic_string@DU?$char_traits@D@std@@V?$allocator@D@2@@std@@PAVMaterial@@@std@@PAX@2@@?$_Tree@V?$_Tmap_traits@V?$basic_string@DU?$char_traits@D@std@@V?$allocator@D@2@@std@@PAVMaterial@@U?$less@V?$basic_string@DU?$char_traits@D@std@@V?$allocator@D@2@@std@@@2@V?$allocator@U?$pair@$$CBV?$basic_string@DU?$char_traits@D@std@@V?$allocator@D@2@@std@@PAVMaterial@@@std@@@2@$0A@@std@@@std@@IAE?AU?$pair@V?$_Tree_iterator@V?$_Tree_val@U?$_Tree_simple_types@U?$pair@$$CBV?$basic_string@DU?$char_traits@D@std@@V?$allocator@D@2@@std@@PAVMaterial@@@std@@@std@@@std@@@std@@_N@1@_NAAU?$pair@$$CBV?$basic_string@DU?$char_traits@D@std@@V?$allocator@D@2@@std@@PAVMaterial@@@1@PAU?$_Tree_node@U?$pair@$$CBV?$basic_string@DU?$char_traits@D@std@@V?$allocator@D@2@@std@@PAVMaterial@@@std@@PAX@1@@Z$0 0041d5ab f i parse.obj
 0001:0001c5ab       __catch$??$_Insert_nohint@AAU?$pair@$$CBV?$basic_string@DU?$char_traits@D@std@@V?$allocator@D@2@@std@@PAVObj@@@std@@PAU?$_Tree_node@U?$pair@$$CBV?$basic_string@DU?$char_traits@D@std@@V?$allocator@D@2@@std@@PAVObj@@@std@@PAX@2@@?$_Tree@V?$_Tmap_traits@V?$basic_string@DU?$char_traits@D@std@@V?$allocator@D@2@@std@@PAVObj@@U?$less@V?$basic_string@DU?$char_traits@D@std@@V?$allocator@D@2@@std@@@2@V?$allocator@U?$pair@$$CBV?$basic_string@DU?$char_traits@D@std@@V?$allocator@D@2@@std@@PAVObj@@@std@@@2@$0A@@std@@@std@@IAE?AU?$pair@V?$_Tree_iterator@V?$_Tree_val@U?$_Tree_simple_types@U?$pair@$$CBV?$basic_string@DU?$char_traits@D@std@@V?$allocator@D@2@@std@@PAVObj@@@std@@@std@@@std@@@std@@_N@1@_NAAU?$pair@$$CBV?$basic_string@DU?$char_traits@D@std@@V?$allocator@D@2@@std@@PAVObj@@@1@PAU?$_Tree_node@U?$pair@$$CBV?$basic_string@DU?$char_traits@D@std@@V?$allocator@D@2@@std@@PAVObj@@@std@@PAX@1@@Z$0 0041d5ab f i parse.obj
 0001:0001c636       __catch$??0?$_Tree@V?$_Tmap_traits@V?$basic_string@DU?$char_traits@D@std@@V?$allocator@D@2@@std@@PAVObj@@U?$less@V?$basic_string@DU?$char_traits@D@std@@V?$allocator@D@2@@std@@@2@V?$allocator@U?$pair@$$CBV?$basic_string@DU?$char_traits@D@std@@V?$allocator@D@2@@std@@PAVObj@@@std@@@2@$0A@@std@@@std@@QAE@ABV01@ABV?$allocator@U?$pair@$$CBV?$basic_string@DU?$char_traits@D@std@@V?$allocator@D@2@@std@@PAVObj@@@std@@@1@@Z$0 0041d636 f i parse.obj
 0001:0001d380       ?eat@@YA_NAAV?$basic_istream@DU?$char_traits@D@std@@@std@@@Z 0041e380 f   parse.obj
 0001:0001e320       ?readDict@@YAPAVObj@@AAV?$basic_istream@DU?$char_traits@D@std@@@std@@@Z 0041f320 f   parse.obj
 0001:0001e6b0       ?readID@@YA?AV?$basic_string@DU?$char_traits@D@std@@V?$allocator@D@2@@std@@AAV?$basic_istream@DU?$char_traits@D@std@@@2@@Z 0041f6b0 f   parse.obj
 0001:0001e810       ?readName@@YAPAVObj@@AAV?$basic_istream@DU?$char_traits@D@std@@@std@@@Z 0041f810 f   parse.obj
 0001:0001e9e0       ?readObject@@YAPAVObj@@AAV?$basic_istream@DU?$char_traits@D@std@@@std@@@Z 0041f9e0 f   parse.obj
 0001:0001ea60       ?readScalar@@YAPAVObj@@AAV?$basic_istream@DU?$char_traits@D@std@@@std@@@Z 0041fa60 f   parse.obj
 0001:0001ebe0       ?readString@@YAPAVObj@@AAV?$basic_istream@DU?$char_traits@D@std@@@std@@@Z 0041fbe0 f   parse.obj
 0001:0001ed70       ?readTuple@@YAPAVObj@@AAV?$basic_istream@DU?$char_traits@D@std@@@std@@@Z 0041fd70 f   parse.obj
 0001:0001f052       __catch$??$_Buynode@ABUpiecewise_construct_t@std@@V?$tuple@ABV?$basic_string@DU?$char_traits@D@std@@V?$allocator@D@2@@std@@@2@V?$tuple@$$$V@2@@?$_Tree_buy@U?$pair@$$CBV?$basic_string@DU?$char_traits@D@std@@V?$allocator@D@2@@std@@PAVObj@@@std@@V?$allocator@U?$pair@$$CBV?$basic_string@DU?$char_traits@D@std@@V?$allocator@D@2@@std@@PAVObj@@@std@@@2@@std@@QAEPAU?$_Tree_node@U?$pair@$$CBV?$basic_string@DU?$char_traits@D@std@@V?$allocator@D@2@@std@@PAVObj@@@std@@PAX@1@ABUpiecewise_construct_t@1@$$QAV?$tuple@ABV?$basic_string@DU?$char_traits@D@std@@V?$allocator@D@2@@std@@@1@$$QAV?$tuple@$$$V@1@@Z$0 00420052 f i read.obj
 0001:0001f052       __catch$??$_Buynode@ABUpiecewise_construct_t@std@@V?$tuple@ABV?$basic_string@DU?$char_traits@D@std@@V?$allocator@D@2@@std@@@2@V?$tuple@$$$V@2@@?$_Tree_buy@U?$pair@$$CBV?$basic_string@DU?$char_traits@D@std@@V?$allocator@D@2@@std@@PAVMaterial@@@std@@V?$allocator@U?$pair@$$CBV?$basic_string@DU?$char_traits@D@std@@V?$allocator@D@2@@std@@PAVMaterial@@@std@@@2@@std@@QAEPAU?$_Tree_node@U?$pair@$$CBV?$basic_string@DU?$char_traits@D@std@@V?$allocator@D@2@@std@@PAVMaterial@@@std@@PAX@1@ABUpiecewise_construct_t@1@$$QAV?$tuple@ABV?$basic_string@DU?$char_traits@D@std@@V?$allocator@D@2@@std@@@1@$$QAV?$tuple@$$$V@1@@Z$0 00420052 f i read.obj
 0001:0001f264       __catch$??$_Insert_hint@AAU?$pair@$$CBV?$basic_string@DU?$char_traits@D@std@@V?$allocator@D@2@@std@@PAVMaterial@@@std@@PAU?$_Tree_node@U?$pair@$$CBV?$basic_string@DU?$char_traits@D@std@@V?$allocator@D@2@@std@@PAVMaterial@@@std@@PAX@2@@?$_Tree@V?$_Tmap_traits@V?$basic_string@DU?$char_traits@D@std@@V?$allocator@D@2@@std@@PAVMaterial@@U?$less@V?$basic_string@DU?$char_traits@D@std@@V?$allocator@D@2@@std@@@2@V?$allocator@U?$pair@$$CBV?$basic_string@DU?$char_traits@D@std@@V?$allocator@D@2@@std@@PAVMaterial@@@std@@@2@$0A@@std@@@std@@IAE?AV?$_Tree_iterator@V?$_Tree_val@U?$_Tree_simple_types@U?$pair@$$CBV?$basic_string@DU?$char_traits@D@std@@V?$allocator@D@2@@std@@PAVMaterial@@@std@@@std@@@std@@@1@V?$_Tree_const_iterator@V?$_Tree_val@U?$_Tree_simple_types@U?$pair@$$CBV?$basic_string@DU?$char_traits@D@std@@V?$allocator@D@2@@std@@PAVMaterial@@@std@@@std@@@std@@@1@AAU?$pair@$$CBV?$basic_string@DU?$char_traits@D@std@@V?$allocator@D@2@@std@@PAVMaterial@@@1@PAU?$_Tree_node@U?$pair@$$CBV?$basic_string@DU?$char_traits@D@std@@V?$allocator@D@2@@std@@PAVMaterial@@@std@@PAX@1@@Z$0 00420264 f i read.obj
 0001:0001f264       __catch$??$_Insert_hint@AAU?$pair@$$CBV?$basic_string@DU?$char_traits@D@std@@V?$allocator@D@2@@std@@PAVObj@@@std@@PAU?$_Tree_node@U?$pair@$$CBV?$basic_string@DU?$char_traits@D@std@@V?$allocator@D@2@@std@@PAVObj@@@std@@PAX@2@@?$_Tree@V?$_Tmap_traits@V?$basic_string@DU?$char_traits@D@std@@V?$allocator@D@2@@std@@PAVObj@@U?$less@V?$basic_string@DU?$char_traits@D@std@@V?$allocator@D@2@@std@@@2@V?$allocator@U?$pair@$$CBV?$basic_string@DU?$char_traits@D@std@@V?$allocator@D@2@@std@@PAVObj@@@std@@@2@$0A@@std@@@std@@IAE?AV?$_Tree_iterator@V?$_Tree_val@U?$_Tree_simple_types@U?$pair@$$CBV?$basic_string@DU?$char_traits@D@std@@V?$allocator@D@2@@std@@PAVObj@@@std@@@std@@@std@@@1@V?$_Tree_const_iterator@V?$_Tree_val@U?$_Tree_simple_types@U?$pair@$$CBV?$basic_string@DU?$char_traits@D@std@@V?$allocator@D@2@@std@@PAVObj@@@std@@@std@@@std@@@1@AAU?$pair@$$CBV?$basic_string@DU?$char_traits@D@std@@V?$allocator@D@2@@std@@PAVObj@@@1@PAU?$_Tree_node@U?$pair@$$CBV?$basic_string@DU?$char_traits@D@std@@V?$allocator@D@2@@std@@PAVObj@@@std@@PAX@1@@Z$0 00420264 f i read.obj
 0001:00021c10       ?getColorField@@YAPAVObj@@PAV1@@Z 00422c10 f   read.obj
 0001:00021e20       ?getField@@YAPAVObj@@PAV1@ABV?$basic_string@DU?$char_traits@D@std@@V?$allocator@D@2@@std@@@Z 00422e20 f   read.obj
 0001:00021fc0       ?getMaterial@@YAPAVMaterial@@PAVObj@@ABV?$map@V?$basic_string@DU?$char_traits@D@std@@V?$allocator@D@2@@std@@PAVMaterial@@U?$less@V?$basic_string@DU?$char_traits@D@std@@V?$allocator@D@2@@std@@@2@V?$allocator@U?$pair@$$CBV?$basic_string@DU?$char_traits@D@std@@V?$allocator@D@2@@std@@PAVMaterial@@@std@@@2@@std@@@Z 00422fc0 f   read.obj
 0001:000221f0       ?hasField@@YA_NPAVObj@@ABV?$basic_string@DU?$char_traits@D@std@@V?$allocator@D@2@@std@@@Z 004231f0 f   read.obj
 0001:000222b0       ?maybeExtractField@@YA_NPAVObj@@ABV?$basic_string@DU?$char_traits@D@std@@V?$allocator@D@2@@std@@AAN@Z 004232b0 f   read.obj
 0001:00022300       ?maybeExtractField@@YA_NPAVObj@@ABV?$basic_string@DU?$char_traits@D@std@@V?$allocator@D@2@@std@@AA_N@Z 00423300 f   read.obj
 0001:000228f0       ?processCamera@@YAXPAVObj@@PAVScene@@@Z 004238f0 f   read.obj
 0001:00023210       ?processGeometry@@YAXPAVObj@@PAVScene@@ABV?$map@V?$basic_string@DU?$char_traits@D@std@@V?$allocator@D@2@@std@@PAVMaterial@@U?$less@V?$basic_string@DU?$char_traits@D@std@@V?$allocator@D@2@@std@@@2@V?$allocator@U?$pair@$$CBV?$basic_string@DU?$char_traits@D@std@@V?$allocator@D@2@@std@@PAVMaterial@@@std@@@2@@std@@PAVTransformNode@@@Z 00424210 f   read.obj
 0001:00023510       ?processGeometry@@YAXV?$basic_string@DU?$char_traits@D@std@@V?$allocator@D@2@@std@@PAVObj@@PAVScene@@ABV?$map@V?$basic_string@DU?$char_traits@D@std@@V?$allocator@D@2@@std@@PAVMaterial@@U?$less@V?$basic_string@DU?$char_traits@D@std@@V?$allocator@D@2@@std@@@2@V?$allocator@U?$pair@$$CBV?$basic_string@DU?$char_traits@D@std@@V?$allocator@D@2@@std@@PAVMaterial@@@std@@@2@@2@PAVTransformNode@@@Z 00424510 f   read.obj
 0001:000240b0       ?processMaterial@@YAPAVMaterial@@PAVObj@@PAV?$map@V?$basic_string@DU?$char_traits@D@std@@V?$allocator@D@2@@std@@PAVMaterial@@U?$less@V?$basic_string@DU?$char_traits@D@std@@V?$allocator@D@2@@std@@@2@V?$allocator@U?$pair@$$CBV?$basic_string@DU?$char_traits@D@std@@V?$allocator@D@2@@std@@PAVMaterial@@@std@@@2@@std@@@Z 004250b0 f   read.obj
 0001:00024bb0       ?processObject@@YAXPAVObj@@PAVScene@@AAV?$map@V?$basic_string@DU?$char_traits@D@std@@V?$allocator@D@2@@std@@PAVMaterial@@U?$less@V?$basic_string@DU?$char_traits@D@std@@V?$allocator@D@2@@std@@@2@V?$allocator@U?$pair@$$CBV?$basic_string@DU?$char_traits@D@std@@V?$allocator@D@2@@std@@PAVMaterial@@@std@@@2@@std@@@Z 00425bb0 f   read.obj
 0001:00025550       ?processTrimesh@@YAXV?$basic_string@DU?$char_traits@D@std@@V?$allocator@D@2@@std@@PAVObj@@PAVScene@@ABV?$map@V?$basic_string@DU?$char_traits@D@std@@V?$allocator@D@2@@std@@PAVMaterial@@U?$less@V?$basic_string@DU?$char_traits@D@std@@V?$allocator@D@2@@std@@@2@V?$allocator@U?$pair@$$CBV?$basic_string@DU?$char_traits@D@std@@V?$allocator@D@2@@std@@PAVMaterial@@@std@@@2@@2@PAVTransformNode@@@Z 00426550 f   read.obj
 0001:00026369       __catch$?readScene@@YAPAVScene@@ABV?$basic_string@DU?$char_traits@D@std@@V?$allocator@D@2@@std@@@Z$0 00427369 f   read.obj
 0001:00026b10       ?tupleToVec@@YA?AVvec3f@@PAVObj@@@Z 00427b10 f   read.obj
 0001:00026e10       ?verifyTuple@@YAXABV?$vector@PAVObj@@V?$allocator@PAVObj@@@std@@@std@@I@Z 00427e10 f   read.obj
 0001:0002ac70       __catch$?_Reallocate@?$vector@Vvec3f@@V?$allocator@Vvec3f@@@std@@@std@@IAEXI@Z$0 0042bc70 f i trimesh.obj
 0001:0002bb1e       __catch$?resize@?$vector@Vvec3f@@V?$allocator@Vvec3f@@@std@@@std@@QAEXI@Z$0 0042cb1e f i trimesh.obj
 0001:0002bf16       _pre_c_init                0042cf16 f   MSVCRT:crtexew.obj
 0001:0002bfcf       _pre_cpp_init              0042cfcf f   MSVCRT:crtexew.obj
 0001:0002c024       ___tmainCRTStartup         0042d024 f   MSVCRT:crtexew.obj
 0001:0002c220       $$000000                   0042d220     MSVCRT:sehprolg4.obj
 0001:0002c700       __ehhandler$?_Copy@?$basic_string@DU?$char_traits@D@std@@V?$allocator@D@2@@std@@QAEXII@Z 0042d700 f   main.obj
 0001:0002c720       __unwindfunclet$_main$0    0042d720 f   main.obj
 0001:0002c72b       __unwindfunclet$_main$1    0042d72b f   main.obj
 0001:0002c736       __unwindfunclet$_main$2    0042d736 f   main.obj
 0001:0002c741       __ehhandler$_main          0042d741 f   main.obj
 0001:0002c760       __unwindfunclet$?loadScene@RayTracer@@QAE_NPAD@Z$2 0042d760 f   RayTracer.obj
 0001:0002c768       __unwindfunclet$?loadScene@RayTracer@@QAE_NPAD@Z$3 0042d768 f   RayTracer.obj
 0001:0002c770       __ehhandler$?loadScene@RayTracer@@QAE_NPAD@Z 0042d770 f   RayTracer.obj
 0001:0002c7a0       __unwindfunclet$?traceRay@RayTracer@@QAE?AVvec3f@@PAVScene@@ABVray@@ABV2@H@Z$0 0042d7a0 f   RayTracer.obj
 0001:0002c7ab       __ehhandler$?traceRay@RayTracer@@QAE?AVvec3f@@PAVScene@@ABVray@@ABV2@H@Z 0042d7ab f   RayTracer.obj
 0001:0002c7e0       __unwindfunclet$??0TraceGLWindow@@QAE@HHHHPBD@Z$1 0042d7e0 f   TraceGLWindow.obj
 0001:0002c7e8       __ehhandler$??0TraceGLWindow@@QAE@HHHHPBD@Z 0042d7e8 f   TraceGLWindow.obj
 0001:0002c810       __unwindfunclet$??0TraceUI@@QAE@XZ$0 0042d810 f   TraceUI.obj
 0001:0002c81b       __unwindfunclet$??0TraceUI@@QAE@XZ$1 0042d81b f   TraceUI.obj
 0001:0002c826       __unwindfunclet$??0TraceUI@@QAE@XZ$2 0042d826 f   TraceUI.obj
 0001:0002c831       __unwindfunclet$??0TraceUI@@QAE@XZ$3 0042d831 f   TraceUI.obj
 0001:0002c83c       __unwindfunclet$??0TraceUI@@QAE@XZ$4 0042d83c f   TraceUI.obj
 0001:0002c847       __unwindfunclet$??0TraceUI@@QAE@XZ$5 0042d847 f   TraceUI.obj
 0001:0002c852       __unwindfunclet$??0TraceUI@@QAE@XZ$6 0042d852 f   TraceUI.obj
 0001:0002c85d       __ehhandler$??0TraceUI@@QAE@XZ 0042d85d f   TraceUI.obj
 0001:0002c880       __unwindfunclet$??$?6DU?$char_traits@D@std@@V?$allocator@D@1@@std@@YAAAV?$basic_ostream@DU?$char_traits@D@std@@@0@AAV10@ABV?$basic_string@DU?$char_traits@D@std@@V?$allocator@D@2@@0@@Z$3 0042d880 f   parse.obj
 0001:0002c888       __unwindfunclet$??$?6DU?$char_traits@D@std@@V?$allocator@D@1@@std@@YAAAV?$basic_ostream@DU?$char_traits@D@std@@@0@AAV10@ABV?$basic_string@DU?$char_traits@D@std@@V?$allocator@D@2@@0@@Z$2 0042d888 f   parse.obj
 0001:0002c890       __ehhandler$??$?6DU?$char_traits@D@std@@V?$allocator@D@1@@std@@YAAAV?$basic_ostream@DU?$char_traits@D@std@@@0@AAV10@ABV?$basic_string@DU?$char_traits@D@std@@V?$allocator@D@2@@0@@Z 0042d890 f   parse.obj
 0001:0002c8b0       __unwindfunclet$??$?6U?$char_traits@D@std@@@std@@YAAAV?$basic_ostream@DU?$char_traits@D@std@@@0@AAV10@D@Z$3 0042d8b0 f   parse.obj
 0001:0002c8b8       __unwindfunclet$??$?6U?$char_traits@D@std@@@std@@YAAAV?$basic_ostream@DU?$char_traits@D@std@@@0@AAV10@D@Z$2 0042d8b8 f   parse.obj
 0001:0002c8c0       __ehhandler$??$?6U?$char_traits@D@std@@@std@@YAAAV?$basic_ostream@DU?$char_traits@D@std@@@0@AAV10@D@Z 0042d8c0 f   parse.obj
 0001:0002c8e0       __unwindfunclet$??$?6U?$char_traits@D@std@@@std@@YAAAV?$basic_ostream@DU?$char_traits@D@std@@@0@AAV10@PBD@Z$3 0042d8e0 f   parse.obj
 0001:0002c8e8       __unwindfunclet$??$?6U?$char_traits@D@std@@@std@@YAAAV?$basic_ostream@DU?$char_traits@D@std@@@0@AAV10@PBD@Z$2 0042d8e8 f   parse.obj
 0001:0002c8f0       __ehhandler$??$?6U?$char_traits@D@std@@@std@@YAAAV?$basic_ostream@DU?$char_traits@D@std@@@0@AAV10@PBD@Z 0042d8f0 f   parse.obj
 0001:0002c910       __unwindfunclet$??$_Buynode@AAU?$pair@$$CBV?$basic_string@DU?$char_traits@D@std@@V?$allocator@D@2@@std@@PAVObj@@@std@@@?$_Tree_buy@U?$pair@$$CBV?$basic_string@DU?$char_traits@D@std@@V?$allocator@D@2@@std@@PAVObj@@@std@@V?$allocator@U?$pair@$$CBV?$basic_string@DU?$char_traits@D@std@@V?$allocator@D@2@@std@@PAVObj@@@std@@@2@@std@@QAEPAU?$_Tree_node@U?$pair@$$CBV?$basic_string@DU?$char_traits@D@std@@V?$allocator@D@2@@std@@PAVObj@@@std@@PAX@1@AAU?$pair@$$CBV?$basic_string@DU?$char_traits@D@std@@V?$allocator@D@2@@std@@PAVObj@@@1@@Z$2 0042d910 f   parse.obj
 0001:0002c921       __ehhandler$??$_Buynode@AAU?$pair@$$CBV?$basic_string@DU?$char_traits@D@std@@V?$allocator@D@2@@std@@PAVObj@@@std@@@?$_Tree_buy@U?$pair@$$CBV?$basic_string@DU?$char_traits@D@std@@V?$allocator@D@2@@std@@PAVObj@@@std@@V?$allocator@U?$pair@$$CBV?$basic_string@DU?$char_traits@D@std@@V?$allocator@D@2@@std@@PAVObj@@@std@@@2@@std@@QAEPAU?$_Tree_node@U?$pair@$$CBV?$basic_string@DU?$char_traits@D@std@@V?$allocator@D@2@@std@@PAVObj@@@std@@PAX@1@AAU?$pair@$$CBV?$basic_string@DU?$char_traits@D@std@@V?$allocator@D@2@@std@@PAVObj@@@1@@Z 0042d921 f   parse.obj
 0001:0002c940       __ehhandler$??$_Copy_nodes@U?$integral_constant@_N$0A@@std@@@?$_Tree@V?$_Tmap_traits@V?$basic_string@DU?$char_traits@D@std@@V?$allocator@D@2@@std@@PAVObj@@U?$less@V?$basic_string@DU?$char_traits@D@std@@V?$allocator@D@2@@std@@@2@V?$allocator@U?$pair@$$CBV?$basic_string@DU?$char_traits@D@std@@V?$allocator@D@2@@std@@PAVObj@@@std@@@2@$0A@@std@@@std@@IAEPAU?$_Tree_node@U?$pair@$$CBV?$basic_string@DU?$char_traits@D@std@@V?$allocator@D@2@@std@@PAVObj@@@std@@PAX@1@PAU21@0U?$integral_constant@_N$0A@@1@@Z 0042d940 f   parse.obj
 0001:0002c960       __ehhandler$??$_Insert_nohint@AAU?$pair@$$CBV?$basic_string@DU?$char_traits@D@std@@V?$allocator@D@2@@std@@PAVMaterial@@@std@@PAU?$_Tree_node@U?$pair@$$CBV?$basic_string@DU?$char_traits@D@std@@V?$allocator@D@2@@std@@PAVMaterial@@@std@@PAX@2@@?$_Tree@V?$_Tmap_traits@V?$basic_string@DU?$char_traits@D@std@@V?$allocator@D@2@@std@@PAVMaterial@@U?$less@V?$basic_string@DU?$char_traits@D@std@@V?$allocator@D@2@@std@@@2@V?$allocator@U?$pair@$$CBV?$basic_string@DU?$char_traits@D@std@@V?$allocator@D@2@@std@@PAVMaterial@@@std@@@2@$0A@@std@@@std@@IAE?AU?$pair@V?$_Tree_iterator@V?$_Tree_val@U?$_Tree_simple_types@U?$pair@$$CBV?$basic_string@DU?$char_traits@D@std@@V?$allocator@D@2@@std@@PAVMaterial@@@std@@@std@@@std@@@std@@_N@1@_NAAU?$pair@$$CBV?$basic_string@DU?$char_traits@D@std@@V?$allocator@D@2@@std@@PAVMaterial@@@1@PAU?$_Tree_node@U?$pair@$$CBV?$basic_string@DU?$char_traits@D@std@@V?$allocator@D@2@@std@@PAVMaterial@@@std@@PAX@1@@Z 0042d960 f   parse.obj
 0001:0002c960       __ehhandler$??$_Insert_nohint@AAU?$pair@$$CBV?$basic_string@DU?$char_traits@D@std@@V?$allocator@D@2@@std@@PAVObj@@@std@@PAU?$_Tree_node@U?$pair@$$CBV?$basic_string@DU?$char_traits@D@std@@V?$allocator@D@2@@std@@PAVObj@@@std@@PAX@2@@?$_Tree@V?$_Tmap_traits@V?$basic_string@DU?$char_traits@D@std@@V?$allocator@D@2@@std@@PAVObj@@U?$less@V?$basic_string@DU?$char_traits@D@std@@V?$allocator@D@2@@std@@@2@V?$allocator@U?$pair@$$CBV?$basic_string@DU?$char_traits@D@std@@V?$allocator@D@2@@std@@PAVObj@@@std@@@2@$0A@@std@@@std@@IAE?AU?$pair@V?$_Tree_iterator@V?$_Tree_val@U?$_Tree_simple_types@U?$pair@$$CBV?$basic_string@DU?$char_traits@D@std@@V?$allocator@D@2@@std@@PAVObj@@@std@@@std@@@std@@@std@@_N@1@_NAAU?$pair@$$CBV?$basic_string@DU?$char_traits@D@std@@V?$allocator@D@2@@std@@PAVObj@@@1@PAU?$_Tree_node@U?$pair@$$CBV?$basic_string@DU?$char_traits@D@std@@V?$allocator@D@2@@std@@PAVObj@@@std@@PAX@1@@Z 0042d960 f   parse.obj
 0001:0002c980       __unwindfunclet$??0?$_Tree@V?$_Tmap_traits@V?$basic_string@DU?$char_traits@D@std@@V?$allocator@D@2@@std@@PAVObj@@U?$less@V?$basic_string@DU?$char_traits@D@std@@V?$allocator@D@2@@std@@@2@V?$allocator@U?$pair@$$CBV?$basic_string@DU?$char_traits@D@std@@V?$allocator@D@2@@std@@PAVObj@@@std@@@2@$0A@@std@@@std@@QAE@ABV01@ABV?$allocator@U?$pair@$$CBV?$basic_string@DU?$char_traits@D@std@@V?$allocator@D@2@@std@@PAVObj@@@std@@@1@@Z$2 0042d980 f   parse.obj
 0001:0002c988       __ehhandler$??0?$_Tree@V?$_Tmap_traits@V?$basic_string@DU?$char_traits@D@std@@V?$allocator@D@2@@std@@PAVObj@@U?$less@V?$basic_string@DU?$char_traits@D@std@@V?$allocator@D@2@@std@@@2@V?$allocator@U?$pair@$$CBV?$basic_string@DU?$char_traits@D@std@@V?$allocator@D@2@@std@@PAVObj@@@std@@@2@$0A@@std@@@std@@QAE@ABV01@ABV?$allocator@U?$pair@$$CBV?$basic_string@DU?$char_traits@D@std@@V?$allocator@D@2@@std@@PAVObj@@@std@@@1@@Z 0042d988 f   parse.obj
 0001:0002c9b0       __unwindfunclet$??0NamedObj@@QAE@ABV?$basic_string@DU?$char_traits@D@std@@V?$allocator@D@2@@std@@PAVObj@@@Z$0 0042d9b0 f   parse.obj
 0001:0002c9b0       __unwindfunclet$??0IdObj@@QAE@ABV?$basic_string@DU?$char_traits@D@std@@V?$allocator@D@2@@std@@@Z$0 0042d9b0 f   parse.obj
 0001:0002c9b8       __ehhandler$??0IdObj@@QAE@ABV?$basic_string@DU?$char_traits@D@std@@V?$allocator@D@2@@std@@@Z 0042d9b8 f   parse.obj
 0001:0002c9b8       __ehhandler$??0NamedObj@@QAE@ABV?$basic_string@DU?$char_traits@D@std@@V?$allocator@D@2@@std@@PAVObj@@@Z 0042d9b8 f   parse.obj
 0001:0002c9e0       __unwindfunclet$??0ObjTypeMismatch@@QAE@V?$basic_string@DU?$char_traits@D@std@@V?$allocator@D@2@@std@@0@Z$0 0042d9e0 f   parse.obj
 0001:0002c9e8       __unwindfunclet$??0ObjTypeMismatch@@QAE@V?$basic_string@DU?$char_traits@D@std@@V?$allocator@D@2@@std@@0@Z$1 0042d9e8 f   parse.obj
 0001:0002c9f0       __unwindfunclet$??0ObjTypeMismatch@@QAE@V?$basic_string@DU?$char_traits@D@std@@V?$allocator@D@2@@std@@0@Z$2 0042d9f0 f   parse.obj
 0001:0002c9f8       __unwindfunclet$??0ObjTypeMismatch@@QAE@V?$basic_string@DU?$char_traits@D@std@@V?$allocator@D@2@@std@@0@Z$3 0042d9f8 f   parse.obj
 0001:0002ca00       __unwindfunclet$??0ObjTypeMismatch@@QAE@V?$basic_string@DU?$char_traits@D@std@@V?$allocator@D@2@@std@@0@Z$4 0042da00 f   parse.obj
 0001:0002ca08       __unwindfunclet$??0ObjTypeMismatch@@QAE@V?$basic_string@DU?$char_traits@D@std@@V?$allocator@D@2@@std@@0@Z$5 0042da08 f   parse.obj
 0001:0002ca13       __unwindfunclet$??0ObjTypeMismatch@@QAE@V?$basic_string@DU?$char_traits@D@std@@V?$allocator@D@2@@std@@0@Z$6 0042da13 f   parse.obj
 0001:0002ca1e       __unwindfunclet$??0ObjTypeMismatch@@QAE@V?$basic_string@DU?$char_traits@D@std@@V?$allocator@D@2@@std@@0@Z$7 0042da1e f   parse.obj
 0001:0002ca29       __unwindfunclet$??0ObjTypeMismatch@@QAE@V?$basic_string@DU?$char_traits@D@std@@V?$allocator@D@2@@std@@0@Z$8 0042da29 f   parse.obj
 0001:0002ca31       __ehhandler$??0ObjTypeMismatch@@QAE@V?$basic_string@DU?$char_traits@D@std@@V?$allocator@D@2@@std@@0@Z 0042da31 f   parse.obj
 0001:0002ca60       __unwindfunclet$??1DictObj@@UAE@XZ$0 0042da60 f   parse.obj
 0001:0002ca68       __unwindfunclet$??1DictObj@@UAE@XZ$1 0042da68 f   parse.obj
 0001:0002ca73       __ehhandler$??1DictObj@@UAE@XZ 0042da73 f   parse.obj
 0001:0002ca90       __unwindfunclet$??1TupleObj@@UAE@XZ$0 0042da90 f   parse.obj
 0001:0002ca98       __unwindfunclet$??1TupleObj@@UAE@XZ$1 0042da98 f   parse.obj
 0001:0002caa3       __ehhandler$??1TupleObj@@UAE@XZ 0042daa3 f   parse.obj
 0001:0002cac0       __unwindfunclet$??_GNamedObj@@UAEPAXI@Z$0 0042dac0 f   parse.obj
 0001:0002cac8       __unwindfunclet$??_GNamedObj@@UAEPAXI@Z$1 0042dac8 f   parse.obj
 0001:0002cad3       __ehhandler$??_GNamedObj@@UAEPAXI@Z 0042dad3 f   parse.obj
 0001:0002caf0       __unwindfunclet$?eat@@YA_NAAV?$basic_istream@DU?$char_traits@D@std@@@std@@@Z$0 0042daf0 f   parse.obj
 0001:0002caf8       __unwindfunclet$?eat@@YA_NAAV?$basic_istream@DU?$char_traits@D@std@@@std@@@Z$1 0042daf8 f   parse.obj
 0001:0002cb00       __ehhandler$?eat@@YA_NAAV?$basic_istream@DU?$char_traits@D@std@@@std@@@Z 0042db00 f   parse.obj
 0001:0002cb30       __unwindfunclet$?getScalar@Obj@@UBENXZ$0 0042db30 f   parse.obj
 0001:0002cb30       __unwindfunclet$?getChild@Obj@@UBEPAV1@XZ$0 0042db30 f   parse.obj
 0001:0002cb30       __unwindfunclet$?getName@Obj@@UBE?AV?$basic_string@DU?$char_traits@D@std@@V?$allocator@D@2@@std@@XZ$0 0042db30 f   parse.obj
 0001:0002cb30       __unwindfunclet$?getBoolean@Obj@@UBE_NXZ$0 0042db30 f   parse.obj
 0001:0002cb30       __unwindfunclet$?getDict@Obj@@UBEABV?$map@V?$basic_string@DU?$char_traits@D@std@@V?$allocator@D@2@@std@@PAVObj@@U?$less@V?$basic_string@DU?$char_traits@D@std@@V?$allocator@D@2@@std@@@2@V?$allocator@U?$pair@$$CBV?$basic_string@DU?$char_traits@D@std@@V?$allocator@D@2@@std@@PAVObj@@@std@@@2@@std@@XZ$0 0042db30 f   parse.obj
 0001:0002cb30       __unwindfunclet$?getTuple@Obj@@UBEABV?$vector@PAVObj@@V?$allocator@PAVObj@@@std@@@std@@XZ$0 0042db30 f   parse.obj
 0001:0002cb30       __unwindfunclet$?getID@Obj@@UBE?AV?$basic_string@DU?$char_traits@D@std@@V?$allocator@D@2@@std@@XZ$0 0042db30 f   parse.obj
 0001:0002cb30       __unwindfunclet$?getString@Obj@@UBE?AV?$basic_string@DU?$char_traits@D@std@@V?$allocator@D@2@@std@@XZ$0 0042db30 f   parse.obj
 0001:0002cb38       __unwindfunclet$?getChild@Obj@@UBEPAV1@XZ$2 0042db38 f   parse.obj
 0001:0002cb38       __unwindfunclet$?getID@Obj@@UBE?AV?$basic_string@DU?$char_traits@D@std@@V?$allocator@D@2@@std@@XZ$2 0042db38 f   parse.obj
 0001:0002cb38       __unwindfunclet$?getString@Obj@@UBE?AV?$basic_string@DU?$char_traits@D@std@@V?$allocator@D@2@@std@@XZ$2 0042db38 f   parse.obj
 0001:0002cb38       __unwindfunclet$?getName@Obj@@UBE?AV?$basic_string@DU?$char_traits@D@std@@V?$allocator@D@2@@std@@XZ$2 0042db38 f   parse.obj
 0001:0002cb38       __unwindfunclet$?getDict@Obj@@UBEABV?$map@V?$basic_string@DU?$char_traits@D@std@@V?$allocator@D@2@@std@@PAVObj@@U?$less@V?$basic_string@DU?$char_traits@D@std@@V?$allocator@D@2@@std@@@2@V?$allocator@U?$pair@$$CBV?$basic_string@DU?$char_traits@D@std@@V?$allocator@D@2@@std@@PAVObj@@@std@@@2@@std@@XZ$2 0042db38 f   parse.obj
 0001:0002cb38       __unwindfunclet$?getTuple@Obj@@UBEABV?$vector@PAVObj@@V?$allocator@PAVObj@@@std@@@std@@XZ$2 0042db38 f   parse.obj
 0001:0002cb38       __unwindfunclet$?getBoolean@Obj@@UBE_NXZ$2 0042db38 f   parse.obj
 0001:0002cb38       __unwindfunclet$?getScalar@Obj@@UBENXZ$2 0042db38 f   parse.obj
 0001:0002cb40       __ehhandler$?getScalar@Obj@@UBENXZ 0042db40 f   parse.obj
 0001:0002cb40       __ehhandler$?getBoolean@Obj@@UBE_NXZ 0042db40 f   parse.obj
 0001:0002cb40       __ehhandler$?getTuple@Obj@@UBEABV?$vector@PAVObj@@V?$allocator@PAVObj@@@std@@@std@@XZ 0042db40 f   parse.obj
 0001:0002cb40       __ehhandler$?getChild@Obj@@UBEPAV1@XZ 0042db40 f   parse.obj
 0001:0002cb40       __ehhandler$?getID@Obj@@UBE?AV?$basic_string@DU?$char_traits@D@std@@V?$allocator@D@2@@std@@XZ 0042db40 f   parse.obj
 0001:0002cb40       __ehhandler$?getDict@Obj@@UBEABV?$map@V?$basic_string@DU?$char_traits@D@std@@V?$allocator@D@2@@std@@PAVObj@@U?$less@V?$basic_string@DU?$char_traits@D@std@@V?$allocator@D@2@@std@@@2@V?$allocator@U?$pair@$$CBV?$basic_string@DU?$char_traits@D@std@@V?$allocator@D@2@@std@@PAVObj@@@std@@@2@@std@@XZ 0042db40 f   parse.obj
 0001:0002cb40       __ehhandler$?getString@Obj@@UBE?AV?$basic_string@DU?$char_traits@D@std@@V?$allocator@D@2@@std@@XZ 0042db40 f   parse.obj
 0001:0002cb40       __ehhandler$?getName@Obj@@UBE?AV?$basic_string@DU?$char_traits@D@std@@V?$allocator@D@2@@std@@XZ 0042db40 f   parse.obj
 0001:0002cb70       __unwindfunclet$?readDict@@YAPAVObj@@AAV?$basic_istream@DU?$char_traits@D@std@@@std@@@Z$0 0042db70 f   parse.obj
 0001:0002cb78       __unwindfunclet$?readDict@@YAPAVObj@@AAV?$basic_istream@DU?$char_traits@D@std@@@std@@@Z$1 0042db78 f   parse.obj
 0001:0002cb80       __unwindfunclet$?readDict@@YAPAVObj@@AAV?$basic_istream@DU?$char_traits@D@std@@@std@@@Z$2 0042db80 f   parse.obj
 0001:0002cb8b       __unwindfunclet$?readDict@@YAPAVObj@@AAV?$basic_istream@DU?$char_traits@D@std@@@std@@@Z$10 0042db8b f   parse.obj
 0001:0002cb93       __unwindfunclet$?readDict@@YAPAVObj@@AAV?$basic_istream@DU?$char_traits@D@std@@@std@@@Z$5 0042db93 f   parse.obj
 0001:0002cb9b       __unwindfunclet$?readDict@@YAPAVObj@@AAV?$basic_istream@DU?$char_traits@D@std@@@std@@@Z$4 0042db9b f   parse.obj
 0001:0002cba3       __ehhandler$?readDict@@YAPAVObj@@AAV?$basic_istream@DU?$char_traits@D@std@@@std@@@Z 0042dba3 f   parse.obj
 0001:0002cbd0       __unwindfunclet$?readID@@YA?AV?$basic_string@DU?$char_traits@D@std@@V?$allocator@D@2@@std@@AAV?$basic_istream@DU?$char_traits@D@std@@@2@@Z$0 0042dbd0 f   parse.obj
 0001:0002cbe9       __ehhandler$?readID@@YA?AV?$basic_string@DU?$char_traits@D@std@@V?$allocator@D@2@@std@@AAV?$basic_istream@DU?$char_traits@D@std@@@2@@Z 0042dbe9 f   parse.obj
 0001:0002cc10       __unwindfunclet$?readName@@YAPAVObj@@AAV?$basic_istream@DU?$char_traits@D@std@@@std@@@Z$0 0042dc10 f   parse.obj
 0001:0002cc18       __unwindfunclet$?readName@@YAPAVObj@@AAV?$basic_istream@DU?$char_traits@D@std@@@std@@@Z$3 0042dc18 f   parse.obj
 0001:0002cc23       __unwindfunclet$?readName@@YAPAVObj@@AAV?$basic_istream@DU?$char_traits@D@std@@@std@@@Z$4 0042dc23 f   parse.obj
 0001:0002cc2e       __unwindfunclet$?readName@@YAPAVObj@@AAV?$basic_istream@DU?$char_traits@D@std@@@std@@@Z$5 0042dc2e f   parse.obj
 0001:0002cc39       __ehhandler$?readName@@YAPAVObj@@AAV?$basic_istream@DU?$char_traits@D@std@@@std@@@Z 0042dc39 f   parse.obj
 0001:0002cc60       __unwindfunclet$?readScalar@@YAPAVObj@@AAV?$basic_istream@DU?$char_traits@D@std@@@std@@@Z$0 0042dc60 f   parse.obj
 0001:0002cc68       __ehhandler$?readScalar@@YAPAVObj@@AAV?$basic_istream@DU?$char_traits@D@std@@@std@@@Z 0042dc68 f   parse.obj
 0001:0002cc90       __unwindfunclet$?readString@@YAPAVObj@@AAV?$basic_istream@DU?$char_traits@D@std@@@std@@@Z$0 0042dc90 f   parse.obj
 0001:0002cc98       __unwindfunclet$?readString@@YAPAVObj@@AAV?$basic_istream@DU?$char_traits@D@std@@@std@@@Z$1 0042dc98 f   parse.obj
 0001:0002cca3       __unwindfunclet$?readString@@YAPAVObj@@AAV?$basic_istream@DU?$char_traits@D@std@@@std@@@Z$2 0042dca3 f   parse.obj
 0001:0002ccab       __ehhandler$?readString@@YAPAVObj@@AAV?$basic_istream@DU?$char_traits@D@std@@@std@@@Z 0042dcab f   parse.obj
 0001:0002ccd0       __unwindfunclet$?readTuple@@YAPAVObj@@AAV?$basic_istream@DU?$char_traits@D@std@@@std@@@Z$0 0042dcd0 f   parse.obj
 0001:0002ccd8       __unwindfunclet$?readTuple@@YAPAVObj@@AAV?$basic_istream@DU?$char_traits@D@std@@@std@@@Z$2 0042dcd8 f   parse.obj
 0001:0002cce0       __unwindfunclet$?readTuple@@YAPAVObj@@AAV?$basic_istream@DU?$char_traits@D@std@@@std@@@Z$1 0042dce0 f   parse.obj
 0001:0002cceb       __unwindfunclet$?readTuple@@YAPAVObj@@AAV?$basic_istream@DU?$char_traits@D@std@@@std@@@Z$4 0042dceb f   parse.obj
 0001:0002ccf3       __ehhandler$?readTuple@@YAPAVObj@@AAV?$basic_istream@DU?$char_traits@D@std@@@std@@@Z 0042dcf3 f   parse.obj
 0001:0002cd20       __unwindfunclet$??$_Buynode@ABUpiecewise_construct_t@std@@V?$tuple@ABV?$basic_string@DU?$char_traits@D@std@@V?$allocator@D@2@@std@@@2@V?$tuple@$$$V@2@@?$_Tree_buy@U?$pair@$$CBV?$basic_string@DU?$char_traits@D@std@@V?$allocator@D@2@@std@@PAVObj@@@std@@V?$allocator@U?$pair@$$CBV?$basic_string@DU?$char_traits@D@std@@V?$allocator@D@2@@std@@PAVObj@@@std@@@2@@std@@QAEPAU?$_Tree_node@U?$pair@$$CBV?$basic_string@DU?$char_traits@D@std@@V?$allocator@D@2@@std@@PAVObj@@@std@@PAX@1@ABUpiecewise_construct_t@1@$$QAV?$tuple@ABV?$basic_string@DU?$char_traits@D@std@@V?$allocator@D@2@@std@@@1@$$QAV?$tuple@$$$V@1@@Z$2 0042dd20 f   read.obj
 0001:0002cd20       __unwindfunclet$??$_Buynode@ABUpiecewise_construct_t@std@@V?$tuple@ABV?$basic_string@DU?$char_traits@D@std@@V?$allocator@D@2@@std@@@2@V?$tuple@$$$V@2@@?$_Tree_buy@U?$pair@$$CBV?$basic_string@DU?$char_traits@D@std@@V?$allocator@D@2@@std@@PAVMaterial@@@std@@V?$allocator@U?$pair@$$CBV?$basic_string@DU?$char_traits@D@std@@V?$allocator@D@2@@std@@PAVMaterial@@@std@@@2@@std@@QAEPAU?$_Tree_node@U?$pair@$$CBV?$basic_string@DU?$char_traits@D@std@@V?$allocator@D@2@@std@@PAVMaterial@@@std@@PAX@1@ABUpiecewise_construct_t@1@$$QAV?$tuple@ABV?$basic_string@DU?$char_traits@D@std@@V?$allocator@D@2@@std@@@1@$$QAV?$tuple@$$$V@1@@Z$2 0042dd20 f   read.obj
 0001:0002cd31       __ehhandler$??$_Buynode@ABUpiecewise_construct_t@std@@V?$tuple@ABV?$basic_string@DU?$char_traits@D@std@@V?$allocator@D@2@@std@@@2@V?$tuple@$$$V@2@@?$_Tree_buy@U?$pair@$$CBV?$basic_string@DU?$char_traits@D@std@@V?$allocator@D@2@@std@@PAVObj@@@std@@V?$allocator@U?$pair@$$CBV?$basic_string@DU?$char_traits@D@std@@V?$allocator@D@2@@std@@PAVObj@@@std@@@2@@std@@QAEPAU?$_Tree_node@U?$pair@$$CBV?$basic_string@DU?$char_traits@D@std@@V?$allocator@D@2@@std@@PAVObj@@@std@@PAX@1@ABUpiecewise_construct_t@1@$$QAV?$tuple@ABV?$basic_string@DU?$char_traits@D@std@@V?$allocator@D@2@@std@@@1@$$QAV?$tuple@$$$V@1@@Z 0042dd31 f   read.obj
 0001:0002cd31       __ehhandler$??$_Buynode@ABUpiecewise_construct_t@std@@V?$tuple@ABV?$basic_string@DU?$char_traits@D@std@@V?$allocator@D@2@@std@@@2@V?$tuple@$$$V@2@@?$_Tree_buy@U?$pair@$$CBV?$basic_string@DU?$char_traits@D@std@@V?$allocator@D@2@@std@@PAVMaterial@@@std@@V?$allocator@U?$pair@$$CBV?$basic_string@DU?$char_traits@D@std@@V?$allocator@D@2@@std@@PAVMaterial@@@std@@@2@@std@@QAEPAU?$_Tree_node@U?$pair@$$CBV?$basic_string@DU?$char_traits@D@std@@V?$allocator@D@2@@std@@PAVMaterial@@@std@@PAX@1@ABUpiecewise_construct_t@1@$$QAV?$tuple@ABV?$basic_string@DU?$char_traits@D@std@@V?$allocator@D@2@@std@@@1@$$QAV?$tuple@$$$V@1@@Z 0042dd31 f   read.obj
 0001:0002cd50       __ehhandler$??$_Insert_hint@AAU?$pair@$$CBV?$basic_string@DU?$char_traits@D@std@@V?$allocator@D@2@@std@@PAVMaterial@@@std@@PAU?$_Tree_node@U?$pair@$$CBV?$basic_string@DU?$char_traits@D@std@@V?$allocator@D@2@@std@@PAVMaterial@@@std@@PAX@2@@?$_Tree@V?$_Tmap_traits@V?$basic_string@DU?$char_traits@D@std@@V?$allocator@D@2@@std@@PAVMaterial@@U?$less@V?$basic_string@DU?$char_traits@D@std@@V?$allocator@D@2@@std@@@2@V?$allocator@U?$pair@$$CBV?$basic_string@DU?$char_traits@D@std@@V?$allocator@D@2@@std@@PAVMaterial@@@std@@@2@$0A@@std@@@std@@IAE?AV?$_Tree_iterator@V?$_Tree_val@U?$_Tree_simple_types@U?$pair@$$CBV?$basic_string@DU?$char_traits@D@std@@V?$allocator@D@2@@std@@PAVMaterial@@@std@@@std@@@std@@@1@V?$_Tree_const_iterator@V?$_Tree_val@U?$_Tree_simple_types@U?$pair@$$CBV?$basic_string@DU?$char_traits@D@std@@V?$allocator@D@2@@std@@PAVMaterial@@@std@@@std@@@std@@@1@AAU?$pair@$$CBV?$basic_string@DU?$char_traits@D@std@@V?$allocator@D@2@@std@@PAVMaterial@@@1@PAU?$_Tree_node@U?$pair@$$CBV?$basic_string@DU?$char_traits@D@std@@V?$allocator@D@2@@std@@PAVMaterial@@@std@@PAX@1@@Z 0042dd50 f   read.obj
 0001:0002cd50       __ehhandler$??$_Insert_hint@AAU?$pair@$$CBV?$basic_string@DU?$char_traits@D@std@@V?$allocator@D@2@@std@@PAVObj@@@std@@PAU?$_Tree_node@U?$pair@$$CBV?$basic_string@DU?$char_traits@D@std@@V?$allocator@D@2@@std@@PAVObj@@@std@@PAX@2@@?$_Tree@V?$_Tmap_traits@V?$basic_string@DU?$char_traits@D@std@@V?$allocator@D@2@@std@@PAVObj@@U?$less@V?$basic_string@DU?$char_traits@D@std@@V?$allocator@D@2@@std@@@2@V?$allocator@U?$pair@$$CBV?$basic_string@DU?$char_traits@D@std@@V?$allocator@D@2@@std@@PAVObj@@@std@@@2@$0A@@std@@@std@@IAE?AV?$_Tree_iterator@V?$_Tree_val@U?$_Tree_simple_types@U?$pair@$$CBV?$basic_string@DU?$char_traits@D@std@@V?$allocator@D@2@@std@@PAVObj@@@std@@@std@@@std@@@1@V?$_Tree_const_iterator@V?$_Tree_val@U?$_Tree_simple_types@U?$pair@$$CBV?$basic_string@DU?$char_traits@D@std@@V?$allocator@D@2@@std@@PAVObj@@@std@@@std@@@std@@@1@AAU?$pair@$$CBV?$basic_string@DU?$char_traits@D@std@@V?$allocator@D@2@@std@@PAVObj@@@1@PAU?$_Tree_node@U?$pair@$$CBV?$basic_string@DU?$char_traits@D@std@@V?$allocator@D@2@@std@@PAVObj@@@std@@PAX@1@@Z 0042dd50 f   read.obj
 0001:0002cd70       __unwindfunclet$??$use_facet@V?$codecvt@DDH@std@@@std@@YAABV?$codecvt@DDH@0@ABVlocale@0@@Z$0 0042dd70 f   read.obj
 0001:0002cd79       __ehhandler$??$use_facet@V?$codecvt@DDH@std@@@std@@YAABV?$codecvt@DDH@0@ABVlocale@0@@Z 0042dd79 f   read.obj
 0001:0002cda0       __unwindfunclet$??0?$basic_ifstream@DU?$char_traits@D@std@@@std@@QAE@PBDHH@Z$0 0042dda0 f   read.obj
 0001:0002cdbd       __unwindfunclet$??0?$basic_ifstream@DU?$char_traits@D@std@@@std@@QAE@PBDHH@Z$1 0042ddbd f   read.obj
 0001:0002cdc9       __unwindfunclet$??0?$basic_ifstream@DU?$char_traits@D@std@@@std@@QAE@PBDHH@Z$4 0042ddc9 f   read.obj
 0001:0002cdd2       __unwindfunclet$??0?$basic_ifstream@DU?$char_traits@D@std@@@std@@QAE@PBDHH@Z$2 0042ddd2 f   read.obj
 0001:0002cddd       __ehhandler$??0?$basic_ifstream@DU?$char_traits@D@std@@@std@@QAE@PBDHH@Z 0042dddd f   read.obj
 0001:0002ce00       __unwindfunclet$??0Scene@@QAE@XZ$0 0042de00 f   read.obj
 0001:0002ce0e       __unwindfunclet$??0Scene@@QAE@XZ$1 0042de0e f   read.obj
 0001:0002ce1f       __unwindfunclet$??0Scene@@QAE@XZ$2 0042de1f f   read.obj
 0001:0002ce30       __unwindfunclet$??0Scene@@QAE@XZ$3 0042de30 f   read.obj
 0001:0002ce41       __unwindfunclet$??0Scene@@QAE@XZ$4 0042de41 f   read.obj
 0001:0002ce52       __ehhandler$??0Scene@@QAE@XZ 0042de52 f   read.obj
 0001:0002ce80       __unwindfunclet$??0TransformNode@@IAE@PAV0@ABVmat4f@@@Z$0 0042de80 f   read.obj
 0001:0002ce91       __ehhandler$??0TransformNode@@IAE@PAV0@ABVmat4f@@@Z 0042de91 f   read.obj
 0001:0002cec0       __unwindfunclet$??0ostrstream@std@@QAE@XZ$0 0042dec0 f   read.obj
 0001:0002cedd       __unwindfunclet$??0ostrstream@std@@QAE@XZ$1 0042dedd f   read.obj
 0001:0002cee9       __unwindfunclet$??0ostrstream@std@@QAE@XZ$4 0042dee9 f   read.obj
 0001:0002cef2       __ehhandler$??0ostrstream@std@@QAE@XZ 0042def2 f   read.obj
 0001:0002cf10       __unwindfunclet$??1TransformNode@@QAE@XZ$0 0042df10 f   read.obj
 0001:0002cf1e       __ehhandler$??1TransformNode@@QAE@XZ 0042df1e f   read.obj
 0001:0002cf40       __unwindfunclet$??6@YAAAV?$basic_ostream@DU?$char_traits@D@std@@@std@@AAV01@ABVException@@@Z$0 0042df40 f   read.obj
 0001:0002cf48       __ehhandler$??6@YAAAV?$basic_ostream@DU?$char_traits@D@std@@@std@@AAV01@ABVException@@@Z 0042df48 f   read.obj
 0001:0002cf70       __unwindfunclet$?_Endwrite@?$basic_filebuf@DU?$char_traits@D@std@@@std@@IAE_NXZ$0 0042df70 f   read.obj
 0001:0002cf78       __ehhandler$?_Endwrite@?$basic_filebuf@DU?$char_traits@D@std@@@std@@IAE_NXZ 0042df78 f   read.obj
 0001:0002cfa0       __unwindfunclet$?createChild@TransformNode@@QAEPAV1@ABVmat4f@@@Z$0 0042dfa0 f   read.obj
 0001:0002cfab       __ehhandler$?createChild@TransformNode@@QAEPAV1@ABVmat4f@@@Z 0042dfab f   read.obj
 0001:0002cfd0       __unwindfunclet$?getColorField@@YAPAVObj@@PAV1@@Z$0 0042dfd0 f   read.obj
 0001:0002cfd8       __unwindfunclet$?getColorField@@YAPAVObj@@PAV1@@Z$1 0042dfd8 f   read.obj
 0001:0002cfe0       __unwindfunclet$?getColorField@@YAPAVObj@@PAV1@@Z$2 0042dfe0 f   read.obj
 0001:0002cfe8       __unwindfunclet$?getColorField@@YAPAVObj@@PAV1@@Z$3 0042dfe8 f   read.obj
 0001:0002cff0       __ehhandler$?getColorField@@YAPAVObj@@PAV1@@Z 0042dff0 f   read.obj
 0001:0002d020       __unwindfunclet$?getField@@YAPAVObj@@PAV1@ABV?$basic_string@DU?$char_traits@D@std@@V?$allocator@D@2@@std@@@Z$0 0042e020 f   read.obj
 0001:0002d028       __unwindfunclet$?getField@@YAPAVObj@@PAV1@ABV?$basic_string@DU?$char_traits@D@std@@V?$allocator@D@2@@std@@@Z$1 0042e028 f   read.obj
 0001:0002d030       __unwindfunclet$?getField@@YAPAVObj@@PAV1@ABV?$basic_string@DU?$char_traits@D@std@@V?$allocator@D@2@@std@@@Z$2 0042e030 f   read.obj
 0001:0002d03b       __unwindfunclet$?getField@@YAPAVObj@@PAV1@ABV?$basic_string@DU?$char_traits@D@std@@V?$allocator@D@2@@std@@@Z$3 0042e03b f   read.obj
 0001:0002d046       __unwindfunclet$?getField@@YAPAVObj@@PAV1@ABV?$basic_string@DU?$char_traits@D@std@@V?$allocator@D@2@@std@@@Z$4 0042e046 f   read.obj
 0001:0002d051       __unwindfunclet$?getField@@YAPAVObj@@PAV1@ABV?$basic_string@DU?$char_traits@D@std@@V?$allocator@D@2@@std@@@Z$5 0042e051 f   read.obj
 0001:0002d05c       __ehhandler$?getField@@YAPAVObj@@PAV1@ABV?$basic_string@DU?$char_traits@D@std@@V?$allocator@D@2@@std@@@Z 0042e05c f   read.obj
 0001:0002d090       __unwindfunclet$?getMaterial@@YAPAVMaterial@@PAVObj@@ABV?$map@V?$basic_string@DU?$char_traits@D@std@@V?$allocator@D@2@@std@@PAVMaterial@@U?$less@V?$basic_string@DU?$char_traits@D@std@@V?$allocator@D@2@@std@@@2@V?$allocator@U?$pair@$$CBV?$basic_string@DU?$char_traits@D@std@@V?$allocator@D@2@@std@@PAVMaterial@@@std@@@2@@std@@@Z$0 0042e090 f   read.obj
 0001:0002d098       __unwindfunclet$?getMaterial@@YAPAVMaterial@@PAVObj@@ABV?$map@V?$basic_string@DU?$char_traits@D@std@@V?$allocator@D@2@@std@@PAVMaterial@@U?$less@V?$basic_string@DU?$char_traits@D@std@@V?$allocator@D@2@@std@@@2@V?$allocator@U?$pair@$$CBV?$basic_string@DU?$char_traits@D@std@@V?$allocator@D@2@@std@@PAVMaterial@@@std@@@2@@std@@@Z$1 0042e098 f   read.obj
 0001:0002d0a0       __unwindfunclet$?getMaterial@@YAPAVMaterial@@PAVObj@@ABV?$map@V?$basic_string@DU?$char_traits@D@std@@V?$allocator@D@2@@std@@PAVMaterial@@U?$less@V?$basic_string@DU?$char_traits@D@std@@V?$allocator@D@2@@std@@@2@V?$allocator@U?$pair@$$CBV?$basic_string@DU?$char_traits@D@std@@V?$allocator@D@2@@std@@PAVMaterial@@@std@@@2@@std@@@Z$2 0042e0a0 f   read.obj
 0001:0002d0a8       __ehhandler$?getMaterial@@YAPAVMaterial@@PAVObj@@ABV?$map@V?$basic_string@DU?$char_traits@D@std@@V?$allocator@D@2@@std@@PAVMaterial@@U?$less@V?$basic_string@DU?$char_traits@D@std@@V?$allocator@D@2@@std@@@2@V?$allocator@U?$pair@$$CBV?$basic_string@DU?$char_traits@D@std@@V?$allocator@D@2@@std@@PAVMaterial@@@std@@@2@@std@@@Z 0042e0a8 f   read.obj
 0001:0002d0d0       __unwindfunclet$?open@?$basic_filebuf@DU?$char_traits@D@std@@@std@@QAEPAV12@PBDHH@Z$0 0042e0d0 f   read.obj
 0001:0002d0d8       __ehhandler$?open@?$basic_filebuf@DU?$char_traits@D@std@@@std@@QAEPAV12@PBDHH@Z 0042e0d8 f   read.obj
 0001:0002d100       __unwindfunclet$?processCamera@@YAXPAVObj@@PAVScene@@@Z$0 0042e100 f   read.obj
 0001:0002d10b       __unwindfunclet$?processCamera@@YAXPAVObj@@PAVScene@@@Z$1 0042e10b f   read.obj
 0001:0002d116       __unwindfunclet$?processCamera@@YAXPAVObj@@PAVScene@@@Z$2 0042e116 f   read.obj
 0001:0002d121       __unwindfunclet$?processCamera@@YAXPAVObj@@PAVScene@@@Z$3 0042e121 f   read.obj
 0001:0002d12c       __unwindfunclet$?processCamera@@YAXPAVObj@@PAVScene@@@Z$4 0042e12c f   read.obj
 0001:0002d137       __unwindfunclet$?processCamera@@YAXPAVObj@@PAVScene@@@Z$5 0042e137 f   read.obj
 0001:0002d142       __unwindfunclet$?processCamera@@YAXPAVObj@@PAVScene@@@Z$6 0042e142 f   read.obj
 0001:0002d14d       __unwindfunclet$?processCamera@@YAXPAVObj@@PAVScene@@@Z$7 0042e14d f   read.obj
 0001:0002d158       __unwindfunclet$?processCamera@@YAXPAVObj@@PAVScene@@@Z$8 0042e158 f   read.obj
 0001:0002d163       __unwindfunclet$?processCamera@@YAXPAVObj@@PAVScene@@@Z$9 0042e163 f   read.obj
 0001:0002d185       __unwindfunclet$?processCamera@@YAXPAVObj@@PAVScene@@@Z$10 0042e185 f   read.obj
 0001:0002d1a7       __unwindfunclet$?processCamera@@YAXPAVObj@@PAVScene@@@Z$11 0042e1a7 f   read.obj
 0001:0002d1b2       __unwindfunclet$?processCamera@@YAXPAVObj@@PAVScene@@@Z$12 0042e1b2 f   read.obj
 0001:0002d1bd       __ehhandler$?processCamera@@YAXPAVObj@@PAVScene@@@Z 0042e1bd f   read.obj
 0001:0002d1f0       __unwindfunclet$?processGeometry@@YAXPAVObj@@PAVScene@@ABV?$map@V?$basic_string@DU?$char_traits@D@std@@V?$allocator@D@2@@std@@PAVMaterial@@U?$less@V?$basic_string@DU?$char_traits@D@std@@V?$allocator@D@2@@std@@@2@V?$allocator@U?$pair@$$CBV?$basic_string@DU?$char_traits@D@std@@V?$allocator@D@2@@std@@PAVMaterial@@@std@@@2@@std@@PAVTransformNode@@@Z$0 0042e1f0 f   read.obj
 0001:0002d1f8       __unwindfunclet$?processGeometry@@YAXPAVObj@@PAVScene@@ABV?$map@V?$basic_string@DU?$char_traits@D@std@@V?$allocator@D@2@@std@@PAVMaterial@@U?$less@V?$basic_string@DU?$char_traits@D@std@@V?$allocator@D@2@@std@@@2@V?$allocator@U?$pair@$$CBV?$basic_string@DU?$char_traits@D@std@@V?$allocator@D@2@@std@@PAVMaterial@@@std@@@2@@std@@PAVTransformNode@@@Z$1 0042e1f8 f   read.obj
 0001:0002d200       __unwindfunclet$?processGeometry@@YAXPAVObj@@PAVScene@@ABV?$map@V?$basic_string@DU?$char_traits@D@std@@V?$allocator@D@2@@std@@PAVMaterial@@U?$less@V?$basic_string@DU?$char_traits@D@std@@V?$allocator@D@2@@std@@@2@V?$allocator@U?$pair@$$CBV?$basic_string@DU?$char_traits@D@std@@V?$allocator@D@2@@std@@PAVMaterial@@@std@@@2@@std@@PAVTransformNode@@@Z$3 0042e200 f   read.obj
 0001:0002d208       __unwindfunclet$?processGeometry@@YAXPAVObj@@PAVScene@@ABV?$map@V?$basic_string@DU?$char_traits@D@std@@V?$allocator@D@2@@std@@PAVMaterial@@U?$less@V?$basic_string@DU?$char_traits@D@std@@V?$allocator@D@2@@std@@@2@V?$allocator@U?$pair@$$CBV?$basic_string@DU?$char_traits@D@std@@V?$allocator@D@2@@std@@PAVMaterial@@@std@@@2@@std@@PAVTransformNode@@@Z$5 0042e208 f   read.obj
 0001:0002d213       __unwindfunclet$?processGeometry@@YAXPAVObj@@PAVScene@@ABV?$map@V?$basic_string@DU?$char_traits@D@std@@V?$allocator@D@2@@std@@PAVMaterial@@U?$less@V?$basic_string@DU?$char_traits@D@std@@V?$allocator@D@2@@std@@@2@V?$allocator@U?$pair@$$CBV?$basic_string@DU?$char_traits@D@std@@V?$allocator@D@2@@std@@PAVMaterial@@@std@@@2@@std@@PAVTransformNode@@@Z$6 0042e213 f   read.obj
 0001:0002d21b       __ehhandler$?processGeometry@@YAXPAVObj@@PAVScene@@ABV?$map@V?$basic_string@DU?$char_traits@D@std@@V?$allocator@D@2@@std@@PAVMaterial@@U?$less@V?$basic_string@DU?$char_traits@D@std@@V?$allocator@D@2@@std@@@2@V?$allocator@U?$pair@$$CBV?$basic_string@DU?$char_traits@D@std@@V?$allocator@D@2@@std@@PAVMaterial@@@std@@@2@@std@@PAVTransformNode@@@Z 0042e21b f   read.obj
 0001:0002d250       __unwindfunclet$?processGeometry@@YAXV?$basic_string@DU?$char_traits@D@std@@V?$allocator@D@2@@std@@PAVObj@@PAVScene@@ABV?$map@V?$basic_string@DU?$char_traits@D@std@@V?$allocator@D@2@@std@@PAVMaterial@@U?$less@V?$basic_string@DU?$char_traits@D@std@@V?$allocator@D@2@@std@@@2@V?$allocator@U?$pair@$$CBV?$basic_string@DU?$char_traits@D@std@@V?$allocator@D@2@@std@@PAVMaterial@@@std@@@2@@2@PAVTransformNode@@@Z$0 0042e250 f   read.obj
 0001:0002d258       __unwindfunclet$?processGeometry@@YAXV?$basic_string@DU?$char_traits@D@std@@V?$allocator@D@2@@std@@PAVObj@@PAVScene@@ABV?$map@V?$basic_string@DU?$char_traits@D@std@@V?$allocator@D@2@@std@@PAVMaterial@@U?$less@V?$basic_string@DU?$char_traits@D@std@@V?$allocator@D@2@@std@@@2@V?$allocator@U?$pair@$$CBV?$basic_string@DU?$char_traits@D@std@@V?$allocator@D@2@@std@@PAVMaterial@@@std@@@2@@2@PAVTransformNode@@@Z$2 0042e258 f   read.obj
 0001:0002d260       __unwindfunclet$?processGeometry@@YAXV?$basic_string@DU?$char_traits@D@std@@V?$allocator@D@2@@std@@PAVObj@@PAVScene@@ABV?$map@V?$basic_string@DU?$char_traits@D@std@@V?$allocator@D@2@@std@@PAVMaterial@@U?$less@V?$basic_string@DU?$char_traits@D@std@@V?$allocator@D@2@@std@@@2@V?$allocator@U?$pair@$$CBV?$basic_string@DU?$char_traits@D@std@@V?$allocator@D@2@@std@@PAVMaterial@@@std@@@2@@2@PAVTransformNode@@@Z$6 0042e260 f   read.obj
 0001:0002d268       __unwindfunclet$?processGeometry@@YAXV?$basic_string@DU?$char_traits@D@std@@V?$allocator@D@2@@std@@PAVObj@@PAVScene@@ABV?$map@V?$basic_string@DU?$char_traits@D@std@@V?$allocator@D@2@@std@@PAVMaterial@@U?$less@V?$basic_string@DU?$char_traits@D@std@@V?$allocator@D@2@@std@@@2@V?$allocator@U?$pair@$$CBV?$basic_string@DU?$char_traits@D@std@@V?$allocator@D@2@@std@@PAVMaterial@@@std@@@2@@2@PAVTransformNode@@@Z$7 0042e268 f   read.obj
 0001:0002d270       __unwindfunclet$?processGeometry@@YAXV?$basic_string@DU?$char_traits@D@std@@V?$allocator@D@2@@std@@PAVObj@@PAVScene@@ABV?$map@V?$basic_string@DU?$char_traits@D@std@@V?$allocator@D@2@@std@@PAVMaterial@@U?$less@V?$basic_string@DU?$char_traits@D@std@@V?$allocator@D@2@@std@@@2@V?$allocator@U?$pair@$$CBV?$basic_string@DU?$char_traits@D@std@@V?$allocator@D@2@@std@@PAVMaterial@@@std@@@2@@2@PAVTransformNode@@@Z$8 0042e270 f   read.obj
 0001:0002d278       __unwindfunclet$?processGeometry@@YAXV?$basic_string@DU?$char_traits@D@std@@V?$allocator@D@2@@std@@PAVObj@@PAVScene@@ABV?$map@V?$basic_string@DU?$char_traits@D@std@@V?$allocator@D@2@@std@@PAVMaterial@@U?$less@V?$basic_string@DU?$char_traits@D@std@@V?$allocator@D@2@@std@@@2@V?$allocator@U?$pair@$$CBV?$basic_string@DU?$char_traits@D@std@@V?$allocator@D@2@@std@@PAVMaterial@@@std@@@2@@2@PAVTransformNode@@@Z$9 0042e278 f   read.obj
 0001:0002d280       __ehhandler$?processGeometry@@YAXV?$basic_string@DU?$char_traits@D@std@@V?$allocator@D@2@@std@@PAVObj@@PAVScene@@ABV?$map@V?$basic_string@DU?$char_traits@D@std@@V?$allocator@D@2@@std@@PAVMaterial@@U?$less@V?$basic_string@DU?$char_traits@D@std@@V?$allocator@D@2@@std@@@2@V?$allocator@U?$pair@$$CBV?$basic_string@DU?$char_traits@D@std@@V?$allocator@D@2@@std@@PAVMaterial@@@std@@@2@@2@PAVTransformNode@@@Z 0042e280 f   read.obj
 0001:0002d2b0       __unwindfunclet$?processMaterial@@YAPAVMaterial@@PAVObj@@PAV?$map@V?$basic_string@DU?$char_traits@D@std@@V?$allocator@D@2@@std@@PAVMaterial@@U?$less@V?$basic_string@DU?$char_traits@D@std@@V?$allocator@D@2@@std@@@2@V?$allocator@U?$pair@$$CBV?$basic_string@DU?$char_traits@D@std@@V?$allocator@D@2@@std@@PAVMaterial@@@std@@@2@@std@@@Z$1 0042e2b0 f   read.obj
 0001:0002d2b8       __unwindfunclet$?processMaterial@@YAPAVMaterial@@PAVObj@@PAV?$map@V?$basic_string@DU?$char_traits@D@std@@V?$allocator@D@2@@std@@PAVMaterial@@U?$less@V?$basic_string@DU?$char_traits@D@std@@V?$allocator@D@2@@std@@@2@V?$allocator@U?$pair@$$CBV?$basic_string@DU?$char_traits@D@std@@V?$allocator@D@2@@std@@PAVMaterial@@@std@@@2@@std@@@Z$2 0042e2b8 f   read.obj
 0001:0002d2c0       __unwindfunclet$?processMaterial@@YAPAVMaterial@@PAVObj@@PAV?$map@V?$basic_string@DU?$char_traits@D@std@@V?$allocator@D@2@@std@@PAVMaterial@@U?$less@V?$basic_string@DU?$char_traits@D@std@@V?$allocator@D@2@@std@@@2@V?$allocator@U?$pair@$$CBV?$basic_string@DU?$char_traits@D@std@@V?$allocator@D@2@@std@@PAVMaterial@@@std@@@2@@std@@@Z$3 0042e2c0 f   read.obj
 0001:0002d2c8       __unwindfunclet$?processMaterial@@YAPAVMaterial@@PAVObj@@PAV?$map@V?$basic_string@DU?$char_traits@D@std@@V?$allocator@D@2@@std@@PAVMaterial@@U?$less@V?$basic_string@DU?$char_traits@D@std@@V?$allocator@D@2@@std@@@2@V?$allocator@U?$pair@$$CBV?$basic_string@DU?$char_traits@D@std@@V?$allocator@D@2@@std@@PAVMaterial@@@std@@@2@@std@@@Z$4 0042e2c8 f   read.obj
 0001:0002d2d0       __unwindfunclet$?processMaterial@@YAPAVMaterial@@PAVObj@@PAV?$map@V?$basic_string@DU?$char_traits@D@std@@V?$allocator@D@2@@std@@PAVMaterial@@U?$less@V?$basic_string@DU?$char_traits@D@std@@V?$allocator@D@2@@std@@@2@V?$allocator@U?$pair@$$CBV?$basic_string@DU?$char_traits@D@std@@V?$allocator@D@2@@std@@PAVMaterial@@@std@@@2@@std@@@Z$5 0042e2d0 f   read.obj
 0001:0002d2d8       __unwindfunclet$?processMaterial@@YAPAVMaterial@@PAVObj@@PAV?$map@V?$basic_string@DU?$char_traits@D@std@@V?$allocator@D@2@@std@@PAVMaterial@@U?$less@V?$basic_string@DU?$char_traits@D@std@@V?$allocator@D@2@@std@@@2@V?$allocator@U?$pair@$$CBV?$basic_string@DU?$char_traits@D@std@@V?$allocator@D@2@@std@@PAVMaterial@@@std@@@2@@std@@@Z$6 0042e2d8 f   read.obj
 0001:0002d2e0       __unwindfunclet$?processMaterial@@YAPAVMaterial@@PAVObj@@PAV?$map@V?$basic_string@DU?$char_traits@D@std@@V?$allocator@D@2@@std@@PAVMaterial@@U?$less@V?$basic_string@DU?$char_traits@D@std@@V?$allocator@D@2@@std@@@2@V?$allocator@U?$pair@$$CBV?$basic_string@DU?$char_traits@D@std@@V?$allocator@D@2@@std@@PAVMaterial@@@std@@@2@@std@@@Z$7 0042e2e0 f   read.obj
 0001:0002d2e8       __unwindfunclet$?processMaterial@@YAPAVMaterial@@PAVObj@@PAV?$map@V?$basic_string@DU?$char_traits@D@std@@V?$allocator@D@2@@std@@PAVMaterial@@U?$less@V?$basic_string@DU?$char_traits@D@std@@V?$allocator@D@2@@std@@@2@V?$allocator@U?$pair@$$CBV?$basic_string@DU?$char_traits@D@std@@V?$allocator@D@2@@std@@PAVMaterial@@@std@@@2@@std@@@Z$8 0042e2e8 f   read.obj
 0001:0002d2f0       __unwindfunclet$?processMaterial@@YAPAVMaterial@@PAVObj@@PAV?$map@V?$basic_string@DU?$char_traits@D@std@@V?$allocator@D@2@@std@@PAVMaterial@@U?$less@V?$basic_string@DU?$char_traits@D@std@@V?$allocator@D@2@@std@@@2@V?$allocator@U?$pair@$$CBV?$basic_string@DU?$char_traits@D@std@@V?$allocator@D@2@@std@@PAVMaterial@@@std@@@2@@std@@@Z$9 0042e2f0 f   read.obj
 0001:0002d2f8       __unwindfunclet$?processMaterial@@YAPAVMaterial@@PAVObj@@PAV?$map@V?$basic_string@DU?$char_traits@D@std@@V?$allocator@D@2@@std@@PAVMaterial@@U?$less@V?$basic_string@DU?$char_traits@D@std@@V?$allocator@D@2@@std@@@2@V?$allocator@U?$pair@$$CBV?$basic_string@DU?$char_traits@D@std@@V?$allocator@D@2@@std@@PAVMaterial@@@std@@@2@@std@@@Z$10 0042e2f8 f   read.obj
 0001:0002d300       __unwindfunclet$?processMaterial@@YAPAVMaterial@@PAVObj@@PAV?$map@V?$basic_string@DU?$char_traits@D@std@@V?$allocator@D@2@@std@@PAVMaterial@@U?$less@V?$basic_string@DU?$char_traits@D@std@@V?$allocator@D@2@@std@@@2@V?$allocator@U?$pair@$$CBV?$basic_string@DU?$char_traits@D@std@@V?$allocator@D@2@@std@@PAVMaterial@@@std@@@2@@std@@@Z$11 0042e300 f   read.obj
 0001:0002d308       __unwindfunclet$?processMaterial@@YAPAVMaterial@@PAVObj@@PAV?$map@V?$basic_string@DU?$char_traits@D@std@@V?$allocator@D@2@@std@@PAVMaterial@@U?$less@V?$basic_string@DU?$char_traits@D@std@@V?$allocator@D@2@@std@@@2@V?$allocator@U?$pair@$$CBV?$basic_string@DU?$char_traits@D@std@@V?$allocator@D@2@@std@@PAVMaterial@@@std@@@2@@std@@@Z$12 0042e308 f   read.obj
 0001:0002d310       __unwindfunclet$?processMaterial@@YAPAVMaterial@@PAVObj@@PAV?$map@V?$basic_string@DU?$char_traits@D@std@@V?$allocator@D@2@@std@@PAVMaterial@@U?$less@V?$basic_string@DU?$char_traits@D@std@@V?$allocator@D@2@@std@@@2@V?$allocator@U?$pair@$$CBV?$basic_string@DU?$char_traits@D@std@@V?$allocator@D@2@@std@@PAVMaterial@@@std@@@2@@std@@@Z$13 0042e310 f   read.obj
 0001:0002d318       __unwindfunclet$?processMaterial@@YAPAVMaterial@@PAVObj@@PAV?$map@V?$basic_string@DU?$char_traits@D@std@@V?$allocator@D@2@@std@@PAVMaterial@@U?$less@V?$basic_string@DU?$char_traits@D@std@@V?$allocator@D@2@@std@@@2@V?$allocator@U?$pair@$$CBV?$basic_string@DU?$char_traits@D@std@@V?$allocator@D@2@@std@@PAVMaterial@@@std@@@2@@std@@@Z$14 0042e318 f   read.obj
 0001:0002d320       __unwindfunclet$?processMaterial@@YAPAVMaterial@@PAVObj@@PAV?$map@V?$basic_string@DU?$char_traits@D@std@@V?$allocator@D@2@@std@@PAVMaterial@@U?$less@V?$basic_string@DU?$char_traits@D@std@@V?$allocator@D@2@@std@@@2@V?$allocator@U?$pair@$$CBV?$basic_string@DU?$char_traits@D@std@@V?$allocator@D@2@@std@@PAVMaterial@@@std@@@2@@std@@@Z$15 0042e320 f   read.obj
 0001:0002d328       __unwindfunclet$?processMaterial@@YAPAVMaterial@@PAVObj@@PAV?$map@V?$basic_string@DU?$char_traits@D@std@@V?$allocator@D@2@@std@@PAVMaterial@@U?$less@V?$basic_string@DU?$char_traits@D@std@@V?$allocator@D@2@@std@@@2@V?$allocator@U?$pair@$$CBV?$basic_string@DU?$char_traits@D@std@@V?$allocator@D@2@@std@@PAVMaterial@@@std@@@2@@std@@@Z$16 0042e328 f   read.obj
 0001:0002d330       __unwindfunclet$?processMaterial@@YAPAVMaterial@@PAVObj@@PAV?$map@V?$basic_string@DU?$char_traits@D@std@@V?$allocator@D@2@@std@@PAVMaterial@@U?$less@V?$basic_string@DU?$char_traits@D@std@@V?$allocator@D@2@@std@@@2@V?$allocator@U?$pair@$$CBV?$basic_string@DU?$char_traits@D@std@@V?$allocator@D@2@@std@@PAVMaterial@@@std@@@2@@std@@@Z$17 0042e330 f   read.obj
 0001:0002d338       __unwindfunclet$?processMaterial@@YAPAVMaterial@@PAVObj@@PAV?$map@V?$basic_string@DU?$char_traits@D@std@@V?$allocator@D@2@@std@@PAVMaterial@@U?$less@V?$basic_string@DU?$char_traits@D@std@@V?$allocator@D@2@@std@@@2@V?$allocator@U?$pair@$$CBV?$basic_string@DU?$char_traits@D@std@@V?$allocator@D@2@@std@@PAVMaterial@@@std@@@2@@std@@@Z$18 0042e338 f   read.obj
 0001:0002d340       __unwindfunclet$?processMaterial@@YAPAVMaterial@@PAVObj@@PAV?$map@V?$basic_string@DU?$char_traits@D@std@@V?$allocator@D@2@@std@@PAVMaterial@@U?$less@V?$basic_string@DU?$char_traits@D@std@@V?$allocator@D@2@@std@@@2@V?$allocator@U?$pair@$$CBV?$basic_string@DU?$char_traits@D@std@@V?$allocator@D@2@@std@@PAVMaterial@@@std@@@2@@std@@@Z$19 0042e340 f   read.obj
 0001:0002d348       __unwindfunclet$?processMaterial@@YAPAVMaterial@@PAVObj@@PAV?$map@V?$basic_string@DU?$char_traits@D@std@@V?$allocator@D@2@@std@@PAVMaterial@@U?$less@V?$basic_string@DU?$char_traits@D@std@@V?$allocator@D@2@@std@@@2@V?$allocator@U?$pair@$$CBV?$basic_string@DU?$char_traits@D@std@@V?$allocator@D@2@@std@@PAVMaterial@@@std@@@2@@std@@@Z$20 0042e348 f   read.obj
 0001:0002d350       __unwindfunclet$?processMaterial@@YAPAVMaterial@@PAVObj@@PAV?$map@V?$basic_string@DU?$char_traits@D@std@@V?$allocator@D@2@@std@@PAVMaterial@@U?$less@V?$basic_string@DU?$char_traits@D@std@@V?$allocator@D@2@@std@@@2@V?$allocator@U?$pair@$$CBV?$basic_string@DU?$char_traits@D@std@@V?$allocator@D@2@@std@@PAVMaterial@@@std@@@2@@std@@@Z$23 0042e350 f   read.obj
 0001:0002d35b       __ehhandler$?processMaterial@@YAPAVMaterial@@PAVObj@@PAV?$map@V?$basic_string@DU?$char_traits@D@std@@V?$allocator@D@2@@std@@PAVMaterial@@U?$less@V?$basic_string@DU?$char_traits@D@std@@V?$allocator@D@2@@std@@@2@V?$allocator@U?$pair@$$CBV?$basic_string@DU?$char_traits@D@std@@V?$allocator@D@2@@std@@PAVMaterial@@@std@@@2@@std@@@Z 0042e35b f   read.obj
 0001:0002d390       __unwindfunclet$?processObject@@YAXPAVObj@@PAVScene@@AAV?$map@V?$basic_string@DU?$char_traits@D@std@@V?$allocator@D@2@@std@@PAVMaterial@@U?$less@V?$basic_string@DU?$char_traits@D@std@@V?$allocator@D@2@@std@@@2@V?$allocator@U?$pair@$$CBV?$basic_string@DU?$char_traits@D@std@@V?$allocator@D@2@@std@@PAVMaterial@@@std@@@2@@std@@@Z$0 0042e390 f   read.obj
 0001:0002d398       __unwindfunclet$?processObject@@YAXPAVObj@@PAVScene@@AAV?$map@V?$basic_string@DU?$char_traits@D@std@@V?$allocator@D@2@@std@@PAVMaterial@@U?$less@V?$basic_string@DU?$char_traits@D@std@@V?$allocator@D@2@@std@@@2@V?$allocator@U?$pair@$$CBV?$basic_string@DU?$char_traits@D@std@@V?$allocator@D@2@@std@@PAVMaterial@@@std@@@2@@std@@@Z$1 0042e398 f   read.obj
 0001:0002d3a0       __unwindfunclet$?processObject@@YAXPAVObj@@PAVScene@@AAV?$map@V?$basic_string@DU?$char_traits@D@std@@V?$allocator@D@2@@std@@PAVMaterial@@U?$less@V?$basic_string@DU?$char_traits@D@std@@V?$allocator@D@2@@std@@@2@V?$allocator@U?$pair@$$CBV?$basic_string@DU?$char_traits@D@std@@V?$allocator@D@2@@std@@PAVMaterial@@@std@@@2@@std@@@Z$3 0042e3a0 f   read.obj
 0001:0002d3a8       __unwindfunclet$?processObject@@YAXPAVObj@@PAVScene@@AAV?$map@V?$basic_string@DU?$char_traits@D@std@@V?$allocator@D@2@@std@@PAVMaterial@@U?$less@V?$basic_string@DU?$char_traits@D@std@@V?$allocator@D@2@@std@@@2@V?$allocator@U?$pair@$$CBV?$basic_string@DU?$char_traits@D@std@@V?$allocator@D@2@@std@@PAVMaterial@@@std@@@2@@std@@@Z$7 0042e3a8 f   read.obj
 0001:0002d3b0       __unwindfunclet$?processObject@@YAXPAVObj@@PAVScene@@AAV?$map@V?$basic_string@DU?$char_traits@D@std@@V?$allocator@D@2@@std@@PAVMaterial@@U?$less@V?$basic_string@DU?$char_traits@D@std@@V?$allocator@D@2@@std@@@2@V?$allocator@U?$pair@$$CBV?$basic_string@DU?$char_traits@D@std@@V?$allocator@D@2@@std@@PAVMaterial@@@std@@@2@@std@@@Z$8 0042e3b0 f   read.obj
 0001:0002d3be       __unwindfunclet$?processObject@@YAXPAVObj@@PAVScene@@AAV?$map@V?$basic_string@DU?$char_traits@D@std@@V?$allocator@D@2@@std@@PAVMaterial@@U?$less@V?$basic_string@DU?$char_traits@D@std@@V?$allocator@D@2@@std@@@2@V?$allocator@U?$pair@$$CBV?$basic_string@DU?$char_traits@D@std@@V?$allocator@D@2@@std@@PAVMaterial@@@std@@@2@@std@@@Z$9 0042e3be f   read.obj
 0001:0002d3dd       __unwindfunclet$?processObject@@YAXPAVObj@@PAVScene@@AAV?$map@V?$basic_string@DU?$char_traits@D@std@@V?$allocator@D@2@@std@@PAVMaterial@@U?$less@V?$basic_string@DU?$char_traits@D@std@@V?$allocator@D@2@@std@@@2@V?$allocator@U?$pair@$$CBV?$basic_string@DU?$char_traits@D@std@@V?$allocator@D@2@@std@@PAVMaterial@@@std@@@2@@std@@@Z$10 0042e3dd f   read.obj
 0001:0002d3e5       __unwindfunclet$?processObject@@YAXPAVObj@@PAVScene@@AAV?$map@V?$basic_string@DU?$char_traits@D@std@@V?$allocator@D@2@@std@@PAVMaterial@@U?$less@V?$basic_string@DU?$char_traits@D@std@@V?$allocator@D@2@@std@@@2@V?$allocator@U?$pair@$$CBV?$basic_string@DU?$char_traits@D@std@@V?$allocator@D@2@@std@@PAVMaterial@@@std@@@2@@std@@@Z$11 0042e3e5 f   read.obj
 0001:0002d3f3       __unwindfunclet$?processObject@@YAXPAVObj@@PAVScene@@AAV?$map@V?$basic_string@DU?$char_traits@D@std@@V?$allocator@D@2@@std@@PAVMaterial@@U?$less@V?$basic_string@DU?$char_traits@D@std@@V?$allocator@D@2@@std@@@2@V?$allocator@U?$pair@$$CBV?$basic_string@DU?$char_traits@D@std@@V?$allocator@D@2@@std@@PAVMaterial@@@std@@@2@@std@@@Z$12 0042e3f3 f   read.obj
 0001:0002d412       __unwindfunclet$?processObject@@YAXPAVObj@@PAVScene@@AAV?$map@V?$basic_string@DU?$char_traits@D@std@@V?$allocator@D@2@@std@@PAVMaterial@@U?$less@V?$basic_string@DU?$char_traits@D@std@@V?$allocator@D@2@@std@@@2@V?$allocator@U?$pair@$$CBV?$basic_string@DU?$char_traits@D@std@@V?$allocator@D@2@@std@@PAVMaterial@@@std@@@2@@std@@@Z$14 0042e412 f   read.obj
 0001:0002d41a       __unwindfunclet$?processObject@@YAXPAVObj@@PAVScene@@AAV?$map@V?$basic_string@DU?$char_traits@D@std@@V?$allocator@D@2@@std@@PAVMaterial@@U?$less@V?$basic_string@DU?$char_traits@D@std@@V?$allocator@D@2@@std@@@2@V?$allocator@U?$pair@$$CBV?$basic_string@DU?$char_traits@D@std@@V?$allocator@D@2@@std@@PAVMaterial@@@std@@@2@@std@@@Z$15 0042e41a f   read.obj
 0001:0002d422       __unwindfunclet$?processObject@@YAXPAVObj@@PAVScene@@AAV?$map@V?$basic_string@DU?$char_traits@D@std@@V?$allocator@D@2@@std@@PAVMaterial@@U?$less@V?$basic_string@DU?$char_traits@D@std@@V?$allocator@D@2@@std@@@2@V?$allocator@U?$pair@$$CBV?$basic_string@DU?$char_traits@D@std@@V?$allocator@D@2@@std@@PAVMaterial@@@std@@@2@@std@@@Z$5 0042e422 f   read.obj
 0001:0002d42d       __unwindfunclet$?processObject@@YAXPAVObj@@PAVScene@@AAV?$map@V?$basic_string@DU?$char_traits@D@std@@V?$allocator@D@2@@std@@PAVMaterial@@U?$less@V?$basic_string@DU?$char_traits@D@std@@V?$allocator@D@2@@std@@@2@V?$allocator@U?$pair@$$CBV?$basic_string@DU?$char_traits@D@std@@V?$allocator@D@2@@std@@PAVMaterial@@@std@@@2@@std@@@Z$6 0042e42d f   read.obj
 0001:0002d435       __ehhandler$?processObject@@YAXPAVObj@@PAVScene@@AAV?$map@V?$basic_string@DU?$char_traits@D@std@@V?$allocator@D@2@@std@@PAVMaterial@@U?$less@V?$basic_string@DU?$char_traits@D@std@@V?$allocator@D@2@@std@@@2@V?$allocator@U?$pair@$$CBV?$basic_string@DU?$char_traits@D@std@@V?$allocator@D@2@@std@@PAVMaterial@@@std@@@2@@std@@@Z 0042e435 f   read.obj
 0001:0002d470       __unwindfunclet$?processTrimesh@@YAXV?$basic_string@DU?$char_traits@D@std@@V?$allocator@D@2@@std@@PAVObj@@PAVScene@@ABV?$map@V?$basic_string@DU?$char_traits@D@std@@V?$allocator@D@2@@std@@PAVMaterial@@U?$less@V?$basic_string@DU?$char_traits@D@std@@V?$allocator@D@2@@std@@@2@V?$allocator@U?$pair@$$CBV?$basic_string@DU?$char_traits@D@std@@V?$allocator@D@2@@std@@PAVMaterial@@@std@@@2@@2@PAVTransformNode@@@Z$0 0042e470 f   read.obj
 0001:0002d478       __unwindfunclet$?processTrimesh@@YAXV?$basic_string@DU?$char_traits@D@std@@V?$allocator@D@2@@std@@PAVObj@@PAVScene@@ABV?$map@V?$basic_string@DU?$char_traits@D@std@@V?$allocator@D@2@@std@@PAVMaterial@@U?$less@V?$basic_string@DU?$char_traits@D@std@@V?$allocator@D@2@@std@@@2@V?$allocator@U?$pair@$$CBV?$basic_string@DU?$char_traits@D@std@@V?$allocator@D@2@@std@@PAVMaterial@@@std@@@2@@2@PAVTransformNode@@@Z$1 0042e478 f   read.obj
 0001:0002d480       __unwindfunclet$?processTrimesh@@YAXV?$basic_string@DU?$char_traits@D@std@@V?$allocator@D@2@@std@@PAVObj@@PAVScene@@ABV?$map@V?$basic_string@DU?$char_traits@D@std@@V?$allocator@D@2@@std@@PAVMaterial@@U?$less@V?$basic_string@DU?$char_traits@D@std@@V?$allocator@D@2@@std@@@2@V?$allocator@U?$pair@$$CBV?$basic_string@DU?$char_traits@D@std@@V?$allocator@D@2@@std@@PAVMaterial@@@std@@@2@@2@PAVTransformNode@@@Z$2 0042e480 f   read.obj
 0001:0002d488       __unwindfunclet$?processTrimesh@@YAXV?$basic_string@DU?$char_traits@D@std@@V?$allocator@D@2@@std@@PAVObj@@PAVScene@@ABV?$map@V?$basic_string@DU?$char_traits@D@std@@V?$allocator@D@2@@std@@PAVMaterial@@U?$less@V?$basic_string@DU?$char_traits@D@std@@V?$allocator@D@2@@std@@@2@V?$allocator@U?$pair@$$CBV?$basic_string@DU?$char_traits@D@std@@V?$allocator@D@2@@std@@PAVMaterial@@@std@@@2@@2@PAVTransformNode@@@Z$5 0042e488 f   read.obj
 0001:0002d490       __unwindfunclet$?processTrimesh@@YAXV?$basic_string@DU?$char_traits@D@std@@V?$allocator@D@2@@std@@PAVObj@@PAVScene@@ABV?$map@V?$basic_string@DU?$char_traits@D@std@@V?$allocator@D@2@@std@@PAVMaterial@@U?$less@V?$basic_string@DU?$char_traits@D@std@@V?$allocator@D@2@@std@@@2@V?$allocator@U?$pair@$$CBV?$basic_string@DU?$char_traits@D@std@@V?$allocator@D@2@@std@@PAVMaterial@@@std@@@2@@2@PAVTransformNode@@@Z$6 0042e490 f   read.obj
 0001:0002d498       __unwindfunclet$?processTrimesh@@YAXV?$basic_string@DU?$char_traits@D@std@@V?$allocator@D@2@@std@@PAVObj@@PAVScene@@ABV?$map@V?$basic_string@DU?$char_traits@D@std@@V?$allocator@D@2@@std@@PAVMaterial@@U?$less@V?$basic_string@DU?$char_traits@D@std@@V?$allocator@D@2@@std@@@2@V?$allocator@U?$pair@$$CBV?$basic_string@DU?$char_traits@D@std@@V?$allocator@D@2@@std@@PAVMaterial@@@std@@@2@@2@PAVTransformNode@@@Z$9 0042e498 f   read.obj
 0001:0002d4a0       __unwindfunclet$?processTrimesh@@YAXV?$basic_string@DU?$char_traits@D@std@@V?$allocator@D@2@@std@@PAVObj@@PAVScene@@ABV?$map@V?$basic_string@DU?$char_traits@D@std@@V?$allocator@D@2@@std@@PAVMaterial@@U?$less@V?$basic_string@DU?$char_traits@D@std@@V?$allocator@D@2@@std@@@2@V?$allocator@U?$pair@$$CBV?$basic_string@DU?$char_traits@D@std@@V?$allocator@D@2@@std@@PAVMaterial@@@std@@@2@@2@PAVTransformNode@@@Z$8 0042e4a0 f   read.obj
 0001:0002d4a8       __unwindfunclet$?processTrimesh@@YAXV?$basic_string@DU?$char_traits@D@std@@V?$allocator@D@2@@std@@PAVObj@@PAVScene@@ABV?$map@V?$basic_string@DU?$char_traits@D@std@@V?$allocator@D@2@@std@@PAVMaterial@@U?$less@V?$basic_string@DU?$char_traits@D@std@@V?$allocator@D@2@@std@@@2@V?$allocator@U?$pair@$$CBV?$basic_string@DU?$char_traits@D@std@@V?$allocator@D@2@@std@@PAVMaterial@@@std@@@2@@2@PAVTransformNode@@@Z$7 0042e4a8 f   read.obj
 0001:0002d4b0       __unwindfunclet$?processTrimesh@@YAXV?$basic_string@DU?$char_traits@D@std@@V?$allocator@D@2@@std@@PAVObj@@PAVScene@@ABV?$map@V?$basic_string@DU?$char_traits@D@std@@V?$allocator@D@2@@std@@PAVMaterial@@U?$less@V?$basic_string@DU?$char_traits@D@std@@V?$allocator@D@2@@std@@@2@V?$allocator@U?$pair@$$CBV?$basic_string@DU?$char_traits@D@std@@V?$allocator@D@2@@std@@PAVMaterial@@@std@@@2@@2@PAVTransformNode@@@Z$10 0042e4b0 f   read.obj
 0001:0002d4b8       __unwindfunclet$?processTrimesh@@YAXV?$basic_string@DU?$char_traits@D@std@@V?$allocator@D@2@@std@@PAVObj@@PAVScene@@ABV?$map@V?$basic_string@DU?$char_traits@D@std@@V?$allocator@D@2@@std@@PAVMaterial@@U?$less@V?$basic_string@DU?$char_traits@D@std@@V?$allocator@D@2@@std@@@2@V?$allocator@U?$pair@$$CBV?$basic_string@DU?$char_traits@D@std@@V?$allocator@D@2@@std@@PAVMaterial@@@std@@@2@@2@PAVTransformNode@@@Z$11 0042e4b8 f   read.obj
 0001:0002d4c0       __unwindfunclet$?processTrimesh@@YAXV?$basic_string@DU?$char_traits@D@std@@V?$allocator@D@2@@std@@PAVObj@@PAVScene@@ABV?$map@V?$basic_string@DU?$char_traits@D@std@@V?$allocator@D@2@@std@@PAVMaterial@@U?$less@V?$basic_string@DU?$char_traits@D@std@@V?$allocator@D@2@@std@@@2@V?$allocator@U?$pair@$$CBV?$basic_string@DU?$char_traits@D@std@@V?$allocator@D@2@@std@@PAVMaterial@@@std@@@2@@2@PAVTransformNode@@@Z$12 0042e4c0 f   read.obj
 0001:0002d4c8       __unwindfunclet$?processTrimesh@@YAXV?$basic_string@DU?$char_traits@D@std@@V?$allocator@D@2@@std@@PAVObj@@PAVScene@@ABV?$map@V?$basic_string@DU?$char_traits@D@std@@V?$allocator@D@2@@std@@PAVMaterial@@U?$less@V?$basic_string@DU?$char_traits@D@std@@V?$allocator@D@2@@std@@@2@V?$allocator@U?$pair@$$CBV?$basic_string@DU?$char_traits@D@std@@V?$allocator@D@2@@std@@PAVMaterial@@@std@@@2@@2@PAVTransformNode@@@Z$13 0042e4c8 f   read.obj
 0001:0002d4d0       __unwindfunclet$?processTrimesh@@YAXV?$basic_string@DU?$char_traits@D@std@@V?$allocator@D@2@@std@@PAVObj@@PAVScene@@ABV?$map@V?$basic_string@DU?$char_traits@D@std@@V?$allocator@D@2@@std@@PAVMaterial@@U?$less@V?$basic_string@DU?$char_traits@D@std@@V?$allocator@D@2@@std@@@2@V?$allocator@U?$pair@$$CBV?$basic_string@DU?$char_traits@D@std@@V?$allocator@D@2@@std@@PAVMaterial@@@std@@@2@@2@PAVTransformNode@@@Z$14 0042e4d0 f   read.obj
 0001:0002d4d8       __ehhandler$?processTrimesh@@YAXV?$basic_string@DU?$char_traits@D@std@@V?$allocator@D@2@@std@@PAVObj@@PAVScene@@ABV?$map@V?$basic_string@DU?$char_traits@D@std@@V?$allocator@D@2@@std@@PAVMaterial@@U?$less@V?$basic_string@DU?$char_traits@D@std@@V?$allocator@D@2@@std@@@2@V?$allocator@U?$pair@$$CBV?$basic_string@DU?$char_traits@D@std@@V?$allocator@D@2@@std@@PAVMaterial@@@std@@@2@@2@PAVTransformNode@@@Z 0042e4d8 f   read.obj
 0001:0002d500       __unwindfunclet$?readScene@@YAPAVScene@@AAV?$basic_istream@DU?$char_traits@D@std@@@std@@@Z$0 0042e500 f   read.obj
 0001:0002d50e       __unwindfunclet$?readScene@@YAPAVScene@@AAV?$basic_istream@DU?$char_traits@D@std@@@std@@@Z$1 0042e50e f   read.obj
 0001:0002d519       __unwindfunclet$?readScene@@YAPAVScene@@AAV?$basic_istream@DU?$char_traits@D@std@@@std@@@Z$2 0042e519 f   read.obj
 0001:0002d524       __unwindfunclet$?readScene@@YAPAVScene@@AAV?$basic_istream@DU?$char_traits@D@std@@@std@@@Z$3 0042e524 f   read.obj
 0001:0002d52f       __unwindfunclet$?readScene@@YAPAVScene@@AAV?$basic_istream@DU?$char_traits@D@std@@@std@@@Z$4 0042e52f f   read.obj
 0001:0002d53a       __ehhandler$?readScene@@YAPAVScene@@AAV?$basic_istream@DU?$char_traits@D@std@@@std@@@Z 0042e53a f   read.obj
 0001:0002d570       __unwindfunclet$?readScene@@YAPAVScene@@ABV?$basic_string@DU?$char_traits@D@std@@V?$allocator@D@2@@std@@@Z$2 0042e570 f   read.obj
 0001:0002d57b       __ehhandler$?readScene@@YAPAVScene@@ABV?$basic_string@DU?$char_traits@D@std@@V?$allocator@D@2@@std@@@Z 0042e57b f   read.obj
 0001:0002d5a0       __unwindfunclet$?overflow@?$basic_filebuf@DU?$char_traits@D@std@@@std@@MAEHH@Z$0 0042e5a0 f   read.obj
 0001:0002d5a0       __unwindfunclet$?uflow@?$basic_filebuf@DU?$char_traits@D@std@@@std@@MAEHXZ$0 0042e5a0 f   read.obj
 0001:0002d5a8       __ehhandler$?uflow@?$basic_filebuf@DU?$char_traits@D@std@@@std@@MAEHXZ 0042e5a8 f   read.obj
 0001:0002d5a8       __ehhandler$?overflow@?$basic_filebuf@DU?$char_traits@D@std@@@std@@MAEHH@Z 0042e5a8 f   read.obj
 0001:0002d5d0       __unwindfunclet$?verifyTuple@@YAXABV?$vector@PAVObj@@V?$allocator@PAVObj@@@std@@@std@@I@Z$0 0042e5d0 f   read.obj
 0001:0002d5db       __unwindfunclet$?verifyTuple@@YAXABV?$vector@PAVObj@@V?$allocator@PAVObj@@@std@@@std@@I@Z$1 0042e5db f   read.obj
 0001:0002d5e3       __ehhandler$?verifyTuple@@YAXABV?$vector@PAVObj@@V?$allocator@PAVObj@@@std@@@std@@I@Z 0042e5e3 f   read.obj
 0001:0002d610       __unwindfunclet$?shadowAttenuation@PointLight@@UBE?AVvec3f@@ABV2@@Z$0 0042e610 f   light.obj
 0001:0002d61b       __ehhandler$?shadowAttenuation@PointLight@@UBE?AVvec3f@@ABV2@@Z 0042e61b f   light.obj
 0001:0002d650       __unwindfunclet$??1Scene@@UAE@XZ$0 0042e650 f   scene.obj
 0001:0002d65b       __unwindfunclet$??1Scene@@UAE@XZ$1 0042e65b f   scene.obj
 0001:0002d669       __unwindfunclet$??1Scene@@UAE@XZ$2 0042e669 f   scene.obj
 0001:0002d677       __unwindfunclet$??1Scene@@UAE@XZ$3 0042e677 f   scene.obj
 0001:0002d685       __unwindfunclet$??1Scene@@UAE@XZ$4 0042e685 f   scene.obj
 0001:0002d693       __ehhandler$??1Scene@@UAE@XZ 0042e693 f   scene.obj
 0001:0002d6b0       __unwindfunclet$?intersect@Scene@@QBE_NABVray@@AAVisect@@@Z$0 0042e6b0 f   scene.obj
 0001:0002d6b8       __ehhandler$?intersect@Scene@@QBE_NABVray@@AAVisect@@@Z 0042e6b8 f   scene.obj
 0001:0002d6e0       __unwindfunclet$?intersectLocal@Cone@@UBE_NABVray@@AAVisect@@@Z$0 0042e6e0 f   Cone.obj
 0001:0002d6e0       __unwindfunclet$?intersectLocal@Cylinder@@UBE_NABVray@@AAVisect@@@Z$0 0042e6e0 f   Cone.obj
 0001:0002d6e8       __ehhandler$?intersectLocal@Cylinder@@UBE_NABVray@@AAVisect@@@Z 0042e6e8 f   Cone.obj
 0001:0002d6e8       __ehhandler$?intersectLocal@Cone@@UBE_NABVray@@AAVisect@@@Z 0042e6e8 f   Cone.obj
 0001:0002d710       __ehhandler$?_Reallocate@?$vector@Vvec3f@@V?$allocator@Vvec3f@@@std@@@std@@IAEXI@Z 0042e710 f   trimesh.obj
 0001:0002d730       __unwindfunclet$?addFace@Trimesh@@QAE_NHHH@Z$0 0042e730 f   trimesh.obj
 0001:0002d73b       __ehhandler$?addFace@Trimesh@@QAE_NHHH@Z 0042e73b f   trimesh.obj
 0001:0002d760       __ehhandler$?resize@?$vector@Vvec3f@@V?$allocator@Vvec3f@@@std@@@std@@QAEXI@Z 0042e760 f   trimesh.obj
 0001:0002dbc0       ??__F?_Generic_object@?$_Error_objects@H@std@@2V_Generic_error_category@2@A@@YAXXZ 0042ebc0 f   main.obj
 0001:0002dbd0       ??__F?_Iostream_object@?$_Error_objects@H@std@@2V_Iostream_error_category@2@A@@YAXXZ 0042ebd0 f   main.obj
 0001:0002dbe0       ??__F?_System_object@?$_Error_objects@H@std@@2V_System_error_category@2@A@@YAXXZ 0042ebe0 f   main.obj
 0001:0002dbeb       ??__F_Fac_tidy_reg@std@@YAXXZ 0042ebeb f   msvcprt:locale0_implib.obj
 0002:00000478       _pcppinit                  0042f478     MSVCRT:crtexew.obj
 0002:0000047c       __Fac_tidy_reg$initializer$ 0042f47c     msvcprt:locale0_implib.obj
 0002:00000480       ?_Generic_object$initializer$@?$_Error_objects@H@std@@2P6AXXZA 0042f480     main.obj
 0002:00000484       ?_Iostream_object$initializer$@?$_Error_objects@H@std@@2P6AXXZA 0042f484     main.obj
 0002:00000488       ?_System_object$initializer$@?$_Error_objects@H@std@@2P6AXXZA 0042f488     main.obj
 0002:0000048c       _$S30                      0042f48c     fltkd:Fl_x.obj
 0002:00000498       _pcinit                    0042f498     MSVCRT:crtexew.obj
 0002:0000049c       _pinit                     0042f49c     MSVCRT:atonexit.obj
 0002:000004a0       _pinit                     0042f4a0     MSVCRT:crtexew.obj
 0002:00000b08       _RAY_EPSILON               0042fb08     read.obj
 0002:00001158       _RAY_EPSILON               00430158     scene.obj
 0002:00001160       _RAY_EPSILON               00430160     Cone.obj
 0002:00001170       _RAY_EPSILON               00430170     Cylinder.obj
 0002:00001180       _RAY_EPSILON               00430180     Sphere.obj
 0002:00001188       _RAY_EPSILON               00430188     Square.obj
 0002:00001198       _RAY_EPSILON               00430198     trimesh.obj
 0002:000011a0       _NORMAL_EPSILON            004301a0     trimesh.obj
 0002:000012a0       _epsilon                   004302a0     fltkd:Fl_Valuator.obj
 0002:00001364       _vktab                     00430364     fltkd:Fl_x.obj
 0002:00001478       _compose_pairs             00430478     fltkd:Fl_compose.obj
 0002:00001598       _GS_ExceptionPointers      00430598     MSVCRT:gs_report.obj
 0002:000023a0       __catchsym$?_Copy@?$basic_string@DU?$char_traits@D@std@@V?$allocator@D@2@@std@@QAEXII@Z$5 004313a0     main.obj
 0002:000023b0       __catchsym$?_Copy@?$basic_string@DU?$char_traits@D@std@@V?$allocator@D@2@@std@@QAEXII@Z$4 004313b0     main.obj
 0002:000023c0       __unwindtable$?_Copy@?$basic_string@DU?$char_traits@D@std@@V?$allocator@D@2@@std@@QAEXII@Z 004313c0     main.obj
 0002:000023e0       __ehfuncinfo$?_Copy@?$basic_string@DU?$char_traits@D@std@@V?$allocator@D@2@@std@@QAEXII@Z 004313e0     main.obj
 0002:00002404       __tryblocktable$?_Copy@?$basic_string@DU?$char_traits@D@std@@V?$allocator@D@2@@std@@QAEXII@Z 00431404     main.obj
 0002:0000242c       __unwindtable$_main        0043142c     main.obj
 0002:00002444       __ehfuncinfo$_main         00431444     main.obj
 0002:00002468       __unwindtable$?traceRay@RayTracer@@QAE?AVvec3f@@PAVScene@@ABVray@@ABV2@H@Z 00431468     RayTracer.obj
 0002:00002470       __ehfuncinfo$?traceRay@RayTracer@@QAE?AVvec3f@@PAVScene@@ABVray@@ABV2@H@Z 00431470     RayTracer.obj
 0002:00002494       __catchsym$?loadScene@RayTracer@@QAE_NPAD@Z$4 00431494     RayTracer.obj
 0002:000024a4       __tryblocktable$?loadScene@RayTracer@@QAE_NPAD@Z 004314a4     RayTracer.obj
 0002:000024b8       __unwindtable$?loadScene@RayTracer@@QAE_NPAD@Z 004314b8     RayTracer.obj
 0002:000024d8       __ehfuncinfo$?loadScene@RayTracer@@QAE_NPAD@Z 004314d8     RayTracer.obj
 0002:000024fc       __unwindtable$??0TraceGLWindow@@QAE@HHHHPBD@Z 004314fc     TraceGLWindow.obj
 0002:00002504       __ehfuncinfo$??0TraceGLWindow@@QAE@HHHHPBD@Z 00431504     TraceGLWindow.obj
 0002:00002528       __ehfuncinfo$??0TraceUI@@QAE@XZ 00431528     TraceUI.obj
 0002:0000254c       __unwindtable$??0TraceUI@@QAE@XZ 0043154c     TraceUI.obj
 0002:00002584       __catchsym$??$?6DU?$char_traits@D@std@@V?$allocator@D@1@@std@@YAAAV?$basic_ostream@DU?$char_traits@D@std@@@0@AAV10@ABV?$basic_string@DU?$char_traits@D@std@@V?$allocator@D@2@@0@@Z$4 00431584     parse.obj
 0002:00002594       __tryblocktable$??$?6DU?$char_traits@D@std@@V?$allocator@D@1@@std@@YAAAV?$basic_ostream@DU?$char_traits@D@std@@@0@AAV10@ABV?$basic_string@DU?$char_traits@D@std@@V?$allocator@D@2@@0@@Z 00431594     parse.obj
 0002:000025a8       __unwindtable$??$?6DU?$char_traits@D@std@@V?$allocator@D@1@@std@@YAAAV?$basic_ostream@DU?$char_traits@D@std@@@0@AAV10@ABV?$basic_string@DU?$char_traits@D@std@@V?$allocator@D@2@@0@@Z 004315a8     parse.obj
 0002:000025c8       __ehfuncinfo$??$?6DU?$char_traits@D@std@@V?$allocator@D@1@@std@@YAAAV?$basic_ostream@DU?$char_traits@D@std@@@0@AAV10@ABV?$basic_string@DU?$char_traits@D@std@@V?$allocator@D@2@@0@@Z 004315c8     parse.obj
 0002:000025ec       __catchsym$??$?6U?$char_traits@D@std@@@std@@YAAAV?$basic_ostream@DU?$char_traits@D@std@@@0@AAV10@D@Z$4 004315ec     parse.obj
 0002:000025fc       __tryblocktable$??$?6U?$char_traits@D@std@@@std@@YAAAV?$basic_ostream@DU?$char_traits@D@std@@@0@AAV10@D@Z 004315fc     parse.obj
 0002:00002610       __unwindtable$??$?6U?$char_traits@D@std@@@std@@YAAAV?$basic_ostream@DU?$char_traits@D@std@@@0@AAV10@D@Z 00431610     parse.obj
 0002:00002630       __ehfuncinfo$??$?6U?$char_traits@D@std@@@std@@YAAAV?$basic_ostream@DU?$char_traits@D@std@@@0@AAV10@D@Z 00431630     parse.obj
 0002:00002654       __catchsym$??$?6U?$char_traits@D@std@@@std@@YAAAV?$basic_ostream@DU?$char_traits@D@std@@@0@AAV10@PBD@Z$4 00431654     parse.obj
 0002:00002664       __tryblocktable$??$?6U?$char_traits@D@std@@@std@@YAAAV?$basic_ostream@DU?$char_traits@D@std@@@0@AAV10@PBD@Z 00431664     parse.obj
 0002:00002678       __unwindtable$??$?6U?$char_traits@D@std@@@std@@YAAAV?$basic_ostream@DU?$char_traits@D@std@@@0@AAV10@PBD@Z 00431678     parse.obj
 0002:00002698       __ehfuncinfo$??$?6U?$char_traits@D@std@@@std@@YAAAV?$basic_ostream@DU?$char_traits@D@std@@@0@AAV10@PBD@Z 00431698     parse.obj
 0002:000026bc       __ehfuncinfo$??0ObjTypeMismatch@@QAE@V?$basic_string@DU?$char_traits@D@std@@V?$allocator@D@2@@std@@0@Z 004316bc     parse.obj
 0002:000026e0       __unwindtable$??0ObjTypeMismatch@@QAE@V?$basic_string@DU?$char_traits@D@std@@V?$allocator@D@2@@std@@0@Z 004316e0     parse.obj
 0002:00002728       __unwindtable$?getChild@Obj@@UBEPAV1@XZ 00431728     parse.obj
 0002:00002728       __unwindtable$?getDict@Obj@@UBEABV?$map@V?$basic_string@DU?$char_traits@D@std@@V?$allocator@D@2@@std@@PAVObj@@U?$less@V?$basic_string@DU?$char_traits@D@std@@V?$allocator@D@2@@std@@@2@V?$allocator@U?$pair@$$CBV?$basic_string@DU?$char_traits@D@std@@V?$allocator@D@2@@std@@PAVObj@@@std@@@2@@std@@XZ 00431728     parse.obj
 0002:00002728       __unwindtable$?getID@Obj@@UBE?AV?$basic_string@DU?$char_traits@D@std@@V?$allocator@D@2@@std@@XZ 00431728     parse.obj
 0002:00002728       __unwindtable$?getBoolean@Obj@@UBE_NXZ 00431728     parse.obj
 0002:00002728       __unwindtable$?getTuple@Obj@@UBEABV?$vector@PAVObj@@V?$allocator@PAVObj@@@std@@@std@@XZ 00431728     parse.obj
 0002:00002728       __unwindtable$?getString@Obj@@UBE?AV?$basic_string@DU?$char_traits@D@std@@V?$allocator@D@2@@std@@XZ 00431728     parse.obj
 0002:00002728       __unwindtable$?getScalar@Obj@@UBENXZ 00431728     parse.obj
 0002:00002728       __unwindtable$?getName@Obj@@UBE?AV?$basic_string@DU?$char_traits@D@std@@V?$allocator@D@2@@std@@XZ 00431728     parse.obj
 0002:00002738       __ehfuncinfo$?getName@Obj@@UBE?AV?$basic_string@DU?$char_traits@D@std@@V?$allocator@D@2@@std@@XZ 00431738     parse.obj
 0002:00002738       __ehfuncinfo$?getDict@Obj@@UBEABV?$map@V?$basic_string@DU?$char_traits@D@std@@V?$allocator@D@2@@std@@PAVObj@@U?$less@V?$basic_string@DU?$char_traits@D@std@@V?$allocator@D@2@@std@@@2@V?$allocator@U?$pair@$$CBV?$basic_string@DU?$char_traits@D@std@@V?$allocator@D@2@@std@@PAVObj@@@std@@@2@@std@@XZ 00431738     parse.obj
 0002:00002738       __ehfuncinfo$?getTuple@Obj@@UBEABV?$vector@PAVObj@@V?$allocator@PAVObj@@@std@@@std@@XZ 00431738     parse.obj
 0002:00002738       __ehfuncinfo$?getString@Obj@@UBE?AV?$basic_string@DU?$char_traits@D@std@@V?$allocator@D@2@@std@@XZ 00431738     parse.obj
 0002:00002738       __ehfuncinfo$?getBoolean@Obj@@UBE_NXZ 00431738     parse.obj
 0002:00002738       __ehfuncinfo$?getID@Obj@@UBE?AV?$basic_string@DU?$char_traits@D@std@@V?$allocator@D@2@@std@@XZ 00431738     parse.obj
 0002:00002738       __ehfuncinfo$?getScalar@Obj@@UBENXZ 00431738     parse.obj
 0002:00002738       __ehfuncinfo$?getChild@Obj@@UBEPAV1@XZ 00431738     parse.obj
 0002:0000275c       __unwindtable$??0IdObj@@QAE@ABV?$basic_string@DU?$char_traits@D@std@@V?$allocator@D@2@@std@@@Z 0043175c     parse.obj
 0002:0000275c       __unwindtable$??0NamedObj@@QAE@ABV?$basic_string@DU?$char_traits@D@std@@V?$allocator@D@2@@std@@PAVObj@@@Z 0043175c     parse.obj
 0002:00002764       __ehfuncinfo$??0IdObj@@QAE@ABV?$basic_string@DU?$char_traits@D@std@@V?$allocator@D@2@@std@@@Z 00431764     parse.obj
 0002:00002764       __ehfuncinfo$??0NamedObj@@QAE@ABV?$basic_string@DU?$char_traits@D@std@@V?$allocator@D@2@@std@@PAVObj@@@Z 00431764     parse.obj
 0002:00002788       __unwindtable$??1TupleObj@@UAE@XZ 00431788     parse.obj
 0002:00002798       __ehfuncinfo$??1TupleObj@@UAE@XZ 00431798     parse.obj
 0002:000027bc       __unwindtable$??1DictObj@@UAE@XZ 004317bc     parse.obj
 0002:000027cc       __ehfuncinfo$??1DictObj@@UAE@XZ 004317cc     parse.obj
 0002:000027f0       __catchsym$??0?$_Tree@V?$_Tmap_traits@V?$basic_string@DU?$char_traits@D@std@@V?$allocator@D@2@@std@@PAVObj@@U?$less@V?$basic_string@DU?$char_traits@D@std@@V?$allocator@D@2@@std@@@2@V?$allocator@U?$pair@$$CBV?$basic_string@DU?$char_traits@D@std@@V?$allocator@D@2@@std@@PAVObj@@@std@@@2@$0A@@std@@@std@@QAE@ABV01@ABV?$allocator@U?$pair@$$CBV?$basic_string@DU?$char_traits@D@std@@V?$allocator@D@2@@std@@PAVObj@@@std@@@1@@Z$5 004317f0     parse.obj
 0002:00002800       __tryblocktable$??0?$_Tree@V?$_Tmap_traits@V?$basic_string@DU?$char_traits@D@std@@V?$allocator@D@2@@std@@PAVObj@@U?$less@V?$basic_string@DU?$char_traits@D@std@@V?$allocator@D@2@@std@@@2@V?$allocator@U?$pair@$$CBV?$basic_string@DU?$char_traits@D@std@@V?$allocator@D@2@@std@@PAVObj@@@std@@@2@$0A@@std@@@std@@QAE@ABV01@ABV?$allocator@U?$pair@$$CBV?$basic_string@DU?$char_traits@D@std@@V?$allocator@D@2@@std@@PAVObj@@@std@@@1@@Z 00431800     parse.obj
 0002:00002814       __unwindtable$??0?$_Tree@V?$_Tmap_traits@V?$basic_string@DU?$char_traits@D@std@@V?$allocator@D@2@@std@@PAVObj@@U?$less@V?$basic_string@DU?$char_traits@D@std@@V?$allocator@D@2@@std@@@2@V?$allocator@U?$pair@$$CBV?$basic_string@DU?$char_traits@D@std@@V?$allocator@D@2@@std@@PAVObj@@@std@@@2@$0A@@std@@@std@@QAE@ABV01@ABV?$allocator@U?$pair@$$CBV?$basic_string@DU?$char_traits@D@std@@V?$allocator@D@2@@std@@PAVObj@@@std@@@1@@Z 00431814     parse.obj
 0002:0000282c       __ehfuncinfo$??0?$_Tree@V?$_Tmap_traits@V?$basic_string@DU?$char_traits@D@std@@V?$allocator@D@2@@std@@PAVObj@@U?$less@V?$basic_string@DU?$char_traits@D@std@@V?$allocator@D@2@@std@@@2@V?$allocator@U?$pair@$$CBV?$basic_string@DU?$char_traits@D@std@@V?$allocator@D@2@@std@@PAVObj@@@std@@@2@$0A@@std@@@std@@QAE@ABV01@ABV?$allocator@U?$pair@$$CBV?$basic_string@DU?$char_traits@D@std@@V?$allocator@D@2@@std@@PAVObj@@@std@@@1@@Z 0043182c     parse.obj
 0002:00002850       __unwindtable$??_GNamedObj@@UAEPAXI@Z 00431850     parse.obj
 0002:00002860       __ehfuncinfo$??_GNamedObj@@UAEPAXI@Z 00431860     parse.obj
 0002:00002884       __unwindtable$?readID@@YA?AV?$basic_string@DU?$char_traits@D@std@@V?$allocator@D@2@@std@@AAV?$basic_istream@DU?$char_traits@D@std@@@2@@Z 00431884     parse.obj
 0002:0000288c       __ehfuncinfo$?readID@@YA?AV?$basic_string@DU?$char_traits@D@std@@V?$allocator@D@2@@std@@AAV?$basic_istream@DU?$char_traits@D@std@@@2@@Z 0043188c     parse.obj
 0002:000028b0       __unwindtable$?readString@@YAPAVObj@@AAV?$basic_istream@DU?$char_traits@D@std@@@std@@@Z 004318b0     parse.obj
 0002:000028c8       __ehfuncinfo$?readString@@YAPAVObj@@AAV?$basic_istream@DU?$char_traits@D@std@@@std@@@Z 004318c8     parse.obj
 0002:000028ec       __unwindtable$?readScalar@@YAPAVObj@@AAV?$basic_istream@DU?$char_traits@D@std@@@std@@@Z 004318ec     parse.obj
 0002:000028f4       __ehfuncinfo$?readScalar@@YAPAVObj@@AAV?$basic_istream@DU?$char_traits@D@std@@@std@@@Z 004318f4     parse.obj
 0002:00002918       __ehfuncinfo$?readTuple@@YAPAVObj@@AAV?$basic_istream@DU?$char_traits@D@std@@@std@@@Z 00431918     parse.obj
 0002:0000293c       __unwindtable$?readTuple@@YAPAVObj@@AAV?$basic_istream@DU?$char_traits@D@std@@@std@@@Z 0043193c     parse.obj
 0002:00002964       __ehfuncinfo$?readDict@@YAPAVObj@@AAV?$basic_istream@DU?$char_traits@D@std@@@std@@@Z 00431964     parse.obj
 0002:00002988       __unwindtable$?readDict@@YAPAVObj@@AAV?$basic_istream@DU?$char_traits@D@std@@@std@@@Z 00431988     parse.obj
 0002:000029b8       __unwindtable$?readName@@YAPAVObj@@AAV?$basic_istream@DU?$char_traits@D@std@@@std@@@Z 004319b8     parse.obj
 0002:000029d8       __ehfuncinfo$?readName@@YAPAVObj@@AAV?$basic_istream@DU?$char_traits@D@std@@@std@@@Z 004319d8     parse.obj
 0002:000029fc       __unwindtable$?eat@@YA_NAAV?$basic_istream@DU?$char_traits@D@std@@@std@@@Z 004319fc     parse.obj
 0002:00002a0c       __ehfuncinfo$?eat@@YA_NAAV?$basic_istream@DU?$char_traits@D@std@@@std@@@Z 00431a0c     parse.obj
 0002:00002a30       __catchsym$??$_Copy_nodes@U?$integral_constant@_N$0A@@std@@@?$_Tree@V?$_Tmap_traits@V?$basic_string@DU?$char_traits@D@std@@V?$allocator@D@2@@std@@PAVObj@@U?$less@V?$basic_string@DU?$char_traits@D@std@@V?$allocator@D@2@@std@@@2@V?$allocator@U?$pair@$$CBV?$basic_string@DU?$char_traits@D@std@@V?$allocator@D@2@@std@@PAVObj@@@std@@@2@$0A@@std@@@std@@IAEPAU?$_Tree_node@U?$pair@$$CBV?$basic_string@DU?$char_traits@D@std@@V?$allocator@D@2@@std@@PAVObj@@@std@@PAX@1@PAU21@0U?$integral_constant@_N$0A@@1@@Z$2 00431a30     parse.obj
 0002:00002a40       __unwindtable$??$_Copy_nodes@U?$integral_constant@_N$0A@@std@@@?$_Tree@V?$_Tmap_traits@V?$basic_string@DU?$char_traits@D@std@@V?$allocator@D@2@@std@@PAVObj@@U?$less@V?$basic_string@DU?$char_traits@D@std@@V?$allocator@D@2@@std@@@2@V?$allocator@U?$pair@$$CBV?$basic_string@DU?$char_traits@D@std@@V?$allocator@D@2@@std@@PAVObj@@@std@@@2@$0A@@std@@@std@@IAEPAU?$_Tree_node@U?$pair@$$CBV?$basic_string@DU?$char_traits@D@std@@V?$allocator@D@2@@std@@PAVObj@@@std@@PAX@1@PAU21@0U?$integral_constant@_N$0A@@1@@Z 00431a40     parse.obj
 0002:00002a50       __tryblocktable$??$_Copy_nodes@U?$integral_constant@_N$0A@@std@@@?$_Tree@V?$_Tmap_traits@V?$basic_string@DU?$char_traits@D@std@@V?$allocator@D@2@@std@@PAVObj@@U?$less@V?$basic_string@DU?$char_traits@D@std@@V?$allocator@D@2@@std@@@2@V?$allocator@U?$pair@$$CBV?$basic_string@DU?$char_traits@D@std@@V?$allocator@D@2@@std@@PAVObj@@@std@@@2@$0A@@std@@@std@@IAEPAU?$_Tree_node@U?$pair@$$CBV?$basic_string@DU?$char_traits@D@std@@V?$allocator@D@2@@std@@PAVObj@@@std@@PAX@1@PAU21@0U?$integral_constant@_N$0A@@1@@Z 00431a50     parse.obj
 0002:00002a64       __ehfuncinfo$??$_Copy_nodes@U?$integral_constant@_N$0A@@std@@@?$_Tree@V?$_Tmap_traits@V?$basic_string@DU?$char_traits@D@std@@V?$allocator@D@2@@std@@PAVObj@@U?$less@V?$basic_string@DU?$char_traits@D@std@@V?$allocator@D@2@@std@@@2@V?$allocator@U?$pair@$$CBV?$basic_string@DU?$char_traits@D@std@@V?$allocator@D@2@@std@@PAVObj@@@std@@@2@$0A@@std@@@std@@IAEPAU?$_Tree_node@U?$pair@$$CBV?$basic_string@DU?$char_traits@D@std@@V?$allocator@D@2@@std@@PAVObj@@@std@@PAX@1@PAU21@0U?$integral_constant@_N$0A@@1@@Z 00431a64     parse.obj
 0002:00002a88       __catchsym$??$_Insert_nohint@AAU?$pair@$$CBV?$basic_string@DU?$char_traits@D@std@@V?$allocator@D@2@@std@@PAVMaterial@@@std@@PAU?$_Tree_node@U?$pair@$$CBV?$basic_string@DU?$char_traits@D@std@@V?$allocator@D@2@@std@@PAVMaterial@@@std@@PAX@2@@?$_Tree@V?$_Tmap_traits@V?$basic_string@DU?$char_traits@D@std@@V?$allocator@D@2@@std@@PAVMaterial@@U?$less@V?$basic_string@DU?$char_traits@D@std@@V?$allocator@D@2@@std@@@2@V?$allocator@U?$pair@$$CBV?$basic_string@DU?$char_traits@D@std@@V?$allocator@D@2@@std@@PAVMaterial@@@std@@@2@$0A@@std@@@std@@IAE?AU?$pair@V?$_Tree_iterator@V?$_Tree_val@U?$_Tree_simple_types@U?$pair@$$CBV?$basic_string@DU?$char_traits@D@std@@V?$allocator@D@2@@std@@PAVMaterial@@@std@@@std@@@std@@@std@@_N@1@_NAAU?$pair@$$CBV?$basic_string@DU?$char_traits@D@std@@V?$allocator@D@2@@std@@PAVMaterial@@@1@PAU?$_Tree_node@U?$pair@$$CBV?$basic_string@DU?$char_traits@D@std@@V?$allocator@D@2@@std@@PAVMaterial@@@std@@PAX@1@@Z$2 00431a88     parse.obj
 0002:00002a88       __catchsym$??$_Insert_nohint@AAU?$pair@$$CBV?$basic_string@DU?$char_traits@D@std@@V?$allocator@D@2@@std@@PAVObj@@@std@@PAU?$_Tree_node@U?$pair@$$CBV?$basic_string@DU?$char_traits@D@std@@V?$allocator@D@2@@std@@PAVObj@@@std@@PAX@2@@?$_Tree@V?$_Tmap_traits@V?$basic_string@DU?$char_traits@D@std@@V?$allocator@D@2@@std@@PAVObj@@U?$less@V?$basic_string@DU?$char_traits@D@std@@V?$allocator@D@2@@std@@@2@V?$allocator@U?$pair@$$CBV?$basic_string@DU?$char_traits@D@std@@V?$allocator@D@2@@std@@PAVObj@@@std@@@2@$0A@@std@@@std@@IAE?AU?$pair@V?$_Tree_iterator@V?$_Tree_val@U?$_Tree_simple_types@U?$pair@$$CBV?$basic_string@DU?$char_traits@D@std@@V?$allocator@D@2@@std@@PAVObj@@@std@@@std@@@std@@@std@@_N@1@_NAAU?$pair@$$CBV?$basic_string@DU?$char_traits@D@std@@V?$allocator@D@2@@std@@PAVObj@@@1@PAU?$_Tree_node@U?$pair@$$CBV?$basic_string@DU?$char_traits@D@std@@V?$allocator@D@2@@std@@PAVObj@@@std@@PAX@1@@Z$2 00431a88     parse.obj
 0002:00002a98       __unwindtable$??$_Insert_nohint@AAU?$pair@$$CBV?$basic_string@DU?$char_traits@D@std@@V?$allocator@D@2@@std@@PAVMaterial@@@std@@PAU?$_Tree_node@U?$pair@$$CBV?$basic_string@DU?$char_traits@D@std@@V?$allocator@D@2@@std@@PAVMaterial@@@std@@PAX@2@@?$_Tree@V?$_Tmap_traits@V?$basic_string@DU?$char_traits@D@std@@V?$allocator@D@2@@std@@PAVMaterial@@U?$less@V?$basic_string@DU?$char_traits@D@std@@V?$allocator@D@2@@std@@@2@V?$allocator@U?$pair@$$CBV?$basic_string@DU?$char_traits@D@std@@V?$allocator@D@2@@std@@PAVMaterial@@@std@@@2@$0A@@std@@@std@@IAE?AU?$pair@V?$_Tree_iterator@V?$_Tree_val@U?$_Tree_simple_types@U?$pair@$$CBV?$basic_string@DU?$char_traits@D@std@@V?$allocator@D@2@@std@@PAVMaterial@@@std@@@std@@@std@@@std@@_N@1@_NAAU?$pair@$$CBV?$basic_string@DU?$char_traits@D@std@@V?$allocator@D@2@@std@@PAVMaterial@@@1@PAU?$_Tree_node@U?$pair@$$CBV?$basic_string@DU?$char_traits@D@std@@V?$allocator@D@2@@std@@PAVMaterial@@@std@@PAX@1@@Z 00431a98     parse.obj
 0002:00002a98       __unwindtable$??$_Insert_nohint@AAU?$pair@$$CBV?$basic_string@DU?$char_traits@D@std@@V?$allocator@D@2@@std@@PAVObj@@@std@@PAU?$_Tree_node@U?$pair@$$CBV?$basic_string@DU?$char_traits@D@std@@V?$allocator@D@2@@std@@PAVObj@@@std@@PAX@2@@?$_Tree@V?$_Tmap_traits@V?$basic_string@DU?$char_traits@D@std@@V?$allocator@D@2@@std@@PAVObj@@U?$less@V?$basic_string@DU?$char_traits@D@std@@V?$allocator@D@2@@std@@@2@V?$allocator@U?$pair@$$CBV?$basic_string@DU?$char_traits@D@std@@V?$allocator@D@2@@std@@PAVObj@@@std@@@2@$0A@@std@@@std@@IAE?AU?$pair@V?$_Tree_iterator@V?$_Tree_val@U?$_Tree_simple_types@U?$pair@$$CBV?$basic_string@DU?$char_traits@D@std@@V?$allocator@D@2@@std@@PAVObj@@@std@@@std@@@std@@@std@@_N@1@_NAAU?$pair@$$CBV?$basic_string@DU?$char_traits@D@std@@V?$allocator@D@2@@std@@PAVObj@@@1@PAU?$_Tree_node@U?$pair@$$CBV?$basic_string@DU?$char_traits@D@std@@V?$allocator@D@2@@std@@PAVObj@@@std@@PAX@1@@Z 00431a98     parse.obj
 0002:00002aa8       __tryblocktable$??$_Insert_nohint@AAU?$pair@$$CBV?$basic_string@DU?$char_traits@D@std@@V?$allocator@D@2@@std@@PAVObj@@@std@@PAU?$_Tree_node@U?$pair@$$CBV?$basic_string@DU?$char_traits@D@std@@V?$allocator@D@2@@std@@PAVObj@@@std@@PAX@2@@?$_Tree@V?$_Tmap_traits@V?$basic_string@DU?$char_traits@D@std@@V?$allocator@D@2@@std@@PAVObj@@U?$less@V?$basic_string@DU?$char_traits@D@std@@V?$allocator@D@2@@std@@@2@V?$allocator@U?$pair@$$CBV?$basic_string@DU?$char_traits@D@std@@V?$allocator@D@2@@std@@PAVObj@@@std@@@2@$0A@@std@@@std@@IAE?AU?$pair@V?$_Tree_iterator@V?$_Tree_val@U?$_Tree_simple_types@U?$pair@$$CBV?$basic_string@DU?$char_traits@D@std@@V?$allocator@D@2@@std@@PAVObj@@@std@@@std@@@std@@@std@@_N@1@_NAAU?$pair@$$CBV?$basic_string@DU?$char_traits@D@std@@V?$allocator@D@2@@std@@PAVObj@@@1@PAU?$_Tree_node@U?$pair@$$CBV?$basic_string@DU?$char_traits@D@std@@V?$allocator@D@2@@std@@PAVObj@@@std@@PAX@1@@Z 00431aa8     parse.obj
 0002:00002aa8       __tryblocktable$??$_Insert_nohint@AAU?$pair@$$CBV?$basic_string@DU?$char_traits@D@std@@V?$allocator@D@2@@std@@PAVMaterial@@@std@@PAU?$_Tree_node@U?$pair@$$CBV?$basic_string@DU?$char_traits@D@std@@V?$allocator@D@2@@std@@PAVMaterial@@@std@@PAX@2@@?$_Tree@V?$_Tmap_traits@V?$basic_string@DU?$char_traits@D@std@@V?$allocator@D@2@@std@@PAVMaterial@@U?$less@V?$basic_string@DU?$char_traits@D@std@@V?$allocator@D@2@@std@@@2@V?$allocator@U?$pair@$$CBV?$basic_string@DU?$char_traits@D@std@@V?$allocator@D@2@@std@@PAVMaterial@@@std@@@2@$0A@@std@@@std@@IAE?AU?$pair@V?$_Tree_iterator@V?$_Tree_val@U?$_Tree_simple_types@U?$pair@$$CBV?$basic_string@DU?$char_traits@D@std@@V?$allocator@D@2@@std@@PAVMaterial@@@std@@@std@@@std@@@std@@_N@1@_NAAU?$pair@$$CBV?$basic_string@DU?$char_traits@D@std@@V?$allocator@D@2@@std@@PAVMaterial@@@1@PAU?$_Tree_node@U?$pair@$$CBV?$basic_string@DU?$char_traits@D@std@@V?$allocator@D@2@@std@@PAVMaterial@@@std@@PAX@1@@Z 00431aa8     parse.obj
 0002:00002abc       __ehfuncinfo$??$_Insert_nohint@AAU?$pair@$$CBV?$basic_string@DU?$char_traits@D@std@@V?$allocator@D@2@@std@@PAVObj@@@std@@PAU?$_Tree_node@U?$pair@$$CBV?$basic_string@DU?$char_traits@D@std@@V?$allocator@D@2@@std@@PAVObj@@@std@@PAX@2@@?$_Tree@V?$_Tmap_traits@V?$basic_string@DU?$char_traits@D@std@@V?$allocator@D@2@@std@@PAVObj@@U?$less@V?$basic_string@DU?$char_traits@D@std@@V?$allocator@D@2@@std@@@2@V?$allocator@U?$pair@$$CBV?$basic_string@DU?$char_traits@D@std@@V?$allocator@D@2@@std@@PAVObj@@@std@@@2@$0A@@std@@@std@@IAE?AU?$pair@V?$_Tree_iterator@V?$_Tree_val@U?$_Tree_simple_types@U?$pair@$$CBV?$basic_string@DU?$char_traits@D@std@@V?$allocator@D@2@@std@@PAVObj@@@std@@@std@@@std@@@std@@_N@1@_NAAU?$pair@$$CBV?$basic_string@DU?$char_traits@D@std@@V?$allocator@D@2@@std@@PAVObj@@@1@PAU?$_Tree_node@U?$pair@$$CBV?$basic_string@DU?$char_traits@D@std@@V?$allocator@D@2@@std@@PAVObj@@@std@@PAX@1@@Z 00431abc     parse.obj
 0002:00002abc       __ehfuncinfo$??$_Insert_nohint@AAU?$pair@$$CBV?$basic_string@DU?$char_traits@D@std@@V?$allocator@D@2@@std@@PAVMaterial@@@std@@PAU?$_Tree_node@U?$pair@$$CBV?$basic_string@DU?$char_traits@D@std@@V?$allocator@D@2@@std@@PAVMaterial@@@std@@PAX@2@@?$_Tree@V?$_Tmap_traits@V?$basic_string@DU?$char_traits@D@std@@V?$allocator@D@2@@std@@PAVMaterial@@U?$less@V?$basic_string@DU?$char_traits@D@std@@V?$allocator@D@2@@std@@@2@V?$allocator@U?$pair@$$CBV?$basic_string@DU?$char_traits@D@std@@V?$allocator@D@2@@std@@PAVMaterial@@@std@@@2@$0A@@std@@@std@@IAE?AU?$pair@V?$_Tree_iterator@V?$_Tree_val@U?$_Tree_simple_types@U?$pair@$$CBV?$basic_string@DU?$char_traits@D@std@@V?$allocator@D@2@@std@@PAVMaterial@@@std@@@std@@@std@@@std@@_N@1@_NAAU?$pair@$$CBV?$basic_string@DU?$char_traits@D@std@@V?$allocator@D@2@@std@@PAVMaterial@@@1@PAU?$_Tree_node@U?$pair@$$CBV?$basic_string@DU?$char_traits@D@std@@V?$allocator@D@2@@std@@PAVMaterial@@@std@@PAX@1@@Z 00431abc     parse.obj
 0002:00002ae0       __catchsym$??$_Buynode@AAU?$pair@$$CBV?$basic_string@DU?$char_traits@D@std@@V?$allocator@D@2@@std@@PAVObj@@@std@@@?$_Tree_buy@U?$pair@$$CBV?$basic_string@DU?$char_traits@D@std@@V?$allocator@D@2@@std@@PAVObj@@@std@@V?$allocator@U?$pair@$$CBV?$basic_string@DU?$char_traits@D@std@@V?$allocator@D@2@@std@@PAVObj@@@std@@@2@@std@@QAEPAU?$_Tree_node@U?$pair@$$CBV?$basic_string@DU?$char_traits@D@std@@V?$allocator@D@2@@std@@PAVObj@@@std@@PAX@1@AAU?$pair@$$CBV?$basic_string@DU?$char_traits@D@std@@V?$allocator@D@2@@std@@PAVObj@@@1@@Z$4 00431ae0     parse.obj
 0002:00002af0       __tryblocktable$??$_Buynode@AAU?$pair@$$CBV?$basic_string@DU?$char_traits@D@std@@V?$allocator@D@2@@std@@PAVObj@@@std@@@?$_Tree_buy@U?$pair@$$CBV?$basic_string@DU?$char_traits@D@std@@V?$allocator@D@2@@std@@PAVObj@@@std@@V?$allocator@U?$pair@$$CBV?$basic_string@DU?$char_traits@D@std@@V?$allocator@D@2@@std@@PAVObj@@@std@@@2@@std@@QAEPAU?$_Tree_node@U?$pair@$$CBV?$basic_string@DU?$char_traits@D@std@@V?$allocator@D@2@@std@@PAVObj@@@std@@PAX@1@AAU?$pair@$$CBV?$basic_string@DU?$char_traits@D@std@@V?$allocator@D@2@@std@@PAVObj@@@1@@Z 00431af0     parse.obj
 0002:00002b04       __unwindtable$??$_Buynode@AAU?$pair@$$CBV?$basic_string@DU?$char_traits@D@std@@V?$allocator@D@2@@std@@PAVObj@@@std@@@?$_Tree_buy@U?$pair@$$CBV?$basic_string@DU?$char_traits@D@std@@V?$allocator@D@2@@std@@PAVObj@@@std@@V?$allocator@U?$pair@$$CBV?$basic_string@DU?$char_traits@D@std@@V?$allocator@D@2@@std@@PAVObj@@@std@@@2@@std@@QAEPAU?$_Tree_node@U?$pair@$$CBV?$basic_string@DU?$char_traits@D@std@@V?$allocator@D@2@@std@@PAVObj@@@std@@PAX@1@AAU?$pair@$$CBV?$basic_string@DU?$char_traits@D@std@@V?$allocator@D@2@@std@@PAVObj@@@1@@Z 00431b04     parse.obj
 0002:00002b1c       __ehfuncinfo$??$_Buynode@AAU?$pair@$$CBV?$basic_string@DU?$char_traits@D@std@@V?$allocator@D@2@@std@@PAVObj@@@std@@@?$_Tree_buy@U?$pair@$$CBV?$basic_string@DU?$char_traits@D@std@@V?$allocator@D@2@@std@@PAVObj@@@std@@V?$allocator@U?$pair@$$CBV?$basic_string@DU?$char_traits@D@std@@V?$allocator@D@2@@std@@PAVObj@@@std@@@2@@std@@QAEPAU?$_Tree_node@U?$pair@$$CBV?$basic_string@DU?$char_traits@D@std@@V?$allocator@D@2@@std@@PAVObj@@@std@@PAX@1@AAU?$pair@$$CBV?$basic_string@DU?$char_traits@D@std@@V?$allocator@D@2@@std@@PAVObj@@@1@@Z 00431b1c     parse.obj
 0002:00002bd0       __unwindtable$??0ostrstream@std@@QAE@XZ 00431bd0     read.obj
 0002:00002be8       __ehfuncinfo$??0ostrstream@std@@QAE@XZ 00431be8     read.obj
 0002:00002c0c       __unwindtable$??1TransformNode@@QAE@XZ 00431c0c     read.obj
 0002:00002c14       __ehfuncinfo$??1TransformNode@@QAE@XZ 00431c14     read.obj
 0002:00002c38       __unwindtable$?createChild@TransformNode@@QAEPAV1@ABVmat4f@@@Z 00431c38     read.obj
 0002:00002c40       __ehfuncinfo$?createChild@TransformNode@@QAEPAV1@ABVmat4f@@@Z 00431c40     read.obj
 0002:00002c64       __unwindtable$??0TransformNode@@IAE@PAV0@ABVmat4f@@@Z 00431c64     read.obj
 0002:00002c6c       __ehfuncinfo$??0TransformNode@@IAE@PAV0@ABVmat4f@@@Z 00431c6c     read.obj
 0002:00002c90       __ehfuncinfo$??0Scene@@QAE@XZ 00431c90     read.obj
 0002:00002cb4       __unwindtable$??0Scene@@QAE@XZ 00431cb4     read.obj
 0002:00002cdc       __catchsym$?readScene@@YAPAVScene@@ABV?$basic_string@DU?$char_traits@D@std@@V?$allocator@D@2@@std@@@Z$3 00431cdc     read.obj
 0002:00002cec       __tryblocktable$?readScene@@YAPAVScene@@ABV?$basic_string@DU?$char_traits@D@std@@V?$allocator@D@2@@std@@@Z 00431cec     read.obj
 0002:00002d00       __unwindtable$?readScene@@YAPAVScene@@ABV?$basic_string@DU?$char_traits@D@std@@V?$allocator@D@2@@std@@@Z 00431d00     read.obj
 0002:00002d18       __ehfuncinfo$?readScene@@YAPAVScene@@ABV?$basic_string@DU?$char_traits@D@std@@V?$allocator@D@2@@std@@@Z 00431d18     read.obj
 0002:00002d3c       __ehfuncinfo$?readScene@@YAPAVScene@@AAV?$basic_istream@DU?$char_traits@D@std@@@std@@@Z 00431d3c     read.obj
 0002:00002d60       __unwindtable$?readScene@@YAPAVScene@@AAV?$basic_istream@DU?$char_traits@D@std@@@std@@@Z 00431d60     read.obj
 0002:00002d88       __unwindtable$??6@YAAAV?$basic_ostream@DU?$char_traits@D@std@@@std@@AAV01@ABVException@@@Z 00431d88     read.obj
 0002:00002d90       __ehfuncinfo$??6@YAAAV?$basic_ostream@DU?$char_traits@D@std@@@std@@AAV01@ABVException@@@Z 00431d90     read.obj
 0002:00002db4       __ehfuncinfo$?processObject@@YAXPAVObj@@PAVScene@@AAV?$map@V?$basic_string@DU?$char_traits@D@std@@V?$allocator@D@2@@std@@PAVMaterial@@U?$less@V?$basic_string@DU?$char_traits@D@std@@V?$allocator@D@2@@std@@@2@V?$allocator@U?$pair@$$CBV?$basic_string@DU?$char_traits@D@std@@V?$allocator@D@2@@std@@PAVMaterial@@@std@@@2@@std@@@Z 00431db4     read.obj
 0002:00002dd8       __unwindtable$?processObject@@YAXPAVObj@@PAVScene@@AAV?$map@V?$basic_string@DU?$char_traits@D@std@@V?$allocator@D@2@@std@@PAVMaterial@@U?$less@V?$basic_string@DU?$char_traits@D@std@@V?$allocator@D@2@@std@@@2@V?$allocator@U?$pair@$$CBV?$basic_string@DU?$char_traits@D@std@@V?$allocator@D@2@@std@@PAVMaterial@@@std@@@2@@std@@@Z 00431dd8     read.obj
 0002:00002e50       __unwindtable$?getColorField@@YAPAVObj@@PAV1@@Z 00431e50     read.obj
 0002:00002e70       __ehfuncinfo$?getColorField@@YAPAVObj@@PAV1@@Z 00431e70     read.obj
 0002:00002e94       __ehfuncinfo$?getField@@YAPAVObj@@PAV1@ABV?$basic_string@DU?$char_traits@D@std@@V?$allocator@D@2@@std@@@Z 00431e94     read.obj
 0002:00002eb8       __unwindtable$?getField@@YAPAVObj@@PAV1@ABV?$basic_string@DU?$char_traits@D@std@@V?$allocator@D@2@@std@@@Z 00431eb8     read.obj
 0002:00002ee8       __ehfuncinfo$?processGeometry@@YAXV?$basic_string@DU?$char_traits@D@std@@V?$allocator@D@2@@std@@PAVObj@@PAVScene@@ABV?$map@V?$basic_string@DU?$char_traits@D@std@@V?$allocator@D@2@@std@@PAVMaterial@@U?$less@V?$basic_string@DU?$char_traits@D@std@@V?$allocator@D@2@@std@@@2@V?$allocator@U?$pair@$$CBV?$basic_string@DU?$char_traits@D@std@@V?$allocator@D@2@@std@@PAVMaterial@@@std@@@2@@2@PAVTransformNode@@@Z 00431ee8     read.obj
 0002:00002f0c       __unwindtable$?processGeometry@@YAXV?$basic_string@DU?$char_traits@D@std@@V?$allocator@D@2@@std@@PAVObj@@PAVScene@@ABV?$map@V?$basic_string@DU?$char_traits@D@std@@V?$allocator@D@2@@std@@PAVMaterial@@U?$less@V?$basic_string@DU?$char_traits@D@std@@V?$allocator@D@2@@std@@@2@V?$allocator@U?$pair@$$CBV?$basic_string@DU?$char_traits@D@std@@V?$allocator@D@2@@std@@PAVMaterial@@@std@@@2@@2@PAVTransformNode@@@Z 00431f0c     read.obj
 0002:00002f3c       __ehfuncinfo$?processTrimesh@@YAXV?$basic_string@DU?$char_traits@D@std@@V?$allocator@D@2@@std@@PAVObj@@PAVScene@@ABV?$map@V?$basic_string@DU?$char_traits@D@std@@V?$allocator@D@2@@std@@PAVMaterial@@U?$less@V?$basic_string@DU?$char_traits@D@std@@V?$allocator@D@2@@std@@@2@V?$allocator@U?$pair@$$CBV?$basic_string@DU?$char_traits@D@std@@V?$allocator@D@2@@std@@PAVMaterial@@@std@@@2@@2@PAVTransformNode@@@Z 00431f3c     read.obj
 0002:00002f60       __unwindtable$?processTrimesh@@YAXV?$basic_string@DU?$char_traits@D@std@@V?$allocator@D@2@@std@@PAVObj@@PAVScene@@ABV?$map@V?$basic_string@DU?$char_traits@D@std@@V?$allocator@D@2@@std@@PAVMaterial@@U?$less@V?$basic_string@DU?$char_traits@D@std@@V?$allocator@D@2@@std@@@2@V?$allocator@U?$pair@$$CBV?$basic_string@DU?$char_traits@D@std@@V?$allocator@D@2@@std@@PAVMaterial@@@std@@@2@@2@PAVTransformNode@@@Z 00431f60     read.obj
 0002:00002fc8       __ehfuncinfo$?processCamera@@YAXPAVObj@@PAVScene@@@Z 00431fc8     read.obj
 0002:00002fec       __unwindtable$?processCamera@@YAXPAVObj@@PAVScene@@@Z 00431fec     read.obj
 0002:00003054       __unwindtable$?getMaterial@@YAPAVMaterial@@PAVObj@@ABV?$map@V?$basic_string@DU?$char_traits@D@std@@V?$allocator@D@2@@std@@PAVMaterial@@U?$less@V?$basic_string@DU?$char_traits@D@std@@V?$allocator@D@2@@std@@@2@V?$allocator@U?$pair@$$CBV?$basic_string@DU?$char_traits@D@std@@V?$allocator@D@2@@std@@PAVMaterial@@@std@@@2@@std@@@Z 00432054     read.obj
 0002:0000306c       __ehfuncinfo$?getMaterial@@YAPAVMaterial@@PAVObj@@ABV?$map@V?$basic_string@DU?$char_traits@D@std@@V?$allocator@D@2@@std@@PAVMaterial@@U?$less@V?$basic_string@DU?$char_traits@D@std@@V?$allocator@D@2@@std@@@2@V?$allocator@U?$pair@$$CBV?$basic_string@DU?$char_traits@D@std@@V?$allocator@D@2@@std@@PAVMaterial@@@std@@@2@@std@@@Z 0043206c     read.obj
 0002:00003090       __ehfuncinfo$?processMaterial@@YAPAVMaterial@@PAVObj@@PAV?$map@V?$basic_string@DU?$char_traits@D@std@@V?$allocator@D@2@@std@@PAVMaterial@@U?$less@V?$basic_string@DU?$char_traits@D@std@@V?$allocator@D@2@@std@@@2@V?$allocator@U?$pair@$$CBV?$basic_string@DU?$char_traits@D@std@@V?$allocator@D@2@@std@@PAVMaterial@@@std@@@2@@std@@@Z 00432090     read.obj
 0002:000030b4       __unwindtable$?processMaterial@@YAPAVMaterial@@PAVObj@@PAV?$map@V?$basic_string@DU?$char_traits@D@std@@V?$allocator@D@2@@std@@PAVMaterial@@U?$less@V?$basic_string@DU?$char_traits@D@std@@V?$allocator@D@2@@std@@@2@V?$allocator@U?$pair@$$CBV?$basic_string@DU?$char_traits@D@std@@V?$allocator@D@2@@std@@PAVMaterial@@@std@@@2@@std@@@Z 004320b4     read.obj
 0002:0000315c       __unwindtable$?verifyTuple@@YAXABV?$vector@PAVObj@@V?$allocator@PAVObj@@@std@@@std@@I@Z 0043215c     read.obj
 0002:0000316c       __ehfuncinfo$?verifyTuple@@YAXABV?$vector@PAVObj@@V?$allocator@PAVObj@@@std@@@std@@I@Z 0043216c     read.obj
 0002:00003190       __unwindtable$??0?$basic_ifstream@DU?$char_traits@D@std@@@std@@QAE@PBDHH@Z 00432190     read.obj
 0002:000031b0       __ehfuncinfo$??0?$basic_ifstream@DU?$char_traits@D@std@@@std@@QAE@PBDHH@Z 004321b0     read.obj
 0002:000031d4       __unwindtable$?open@?$basic_filebuf@DU?$char_traits@D@std@@@std@@QAEPAV12@PBDHH@Z 004321d4     read.obj
 0002:000031dc       __ehfuncinfo$?open@?$basic_filebuf@DU?$char_traits@D@std@@@std@@QAEPAV12@PBDHH@Z 004321dc     read.obj
 0002:00003200       __unwindtable$?overflow@?$basic_filebuf@DU?$char_traits@D@std@@@std@@MAEHH@Z 00432200     read.obj
 0002:00003200       __unwindtable$?uflow@?$basic_filebuf@DU?$char_traits@D@std@@@std@@MAEHXZ 00432200     read.obj
 0002:00003208       __ehfuncinfo$?uflow@?$basic_filebuf@DU?$char_traits@D@std@@@std@@MAEHXZ 00432208     read.obj
 0002:00003208       __ehfuncinfo$?overflow@?$basic_filebuf@DU?$char_traits@D@std@@@std@@MAEHH@Z 00432208     read.obj
 0002:0000322c       __unwindtable$?_Endwrite@?$basic_filebuf@DU?$char_traits@D@std@@@std@@IAE_NXZ 0043222c     read.obj
 0002:00003234       __ehfuncinfo$?_Endwrite@?$basic_filebuf@DU?$char_traits@D@std@@@std@@IAE_NXZ 00432234     read.obj
 0002:00003258       __ehfuncinfo$?processGeometry@@YAXPAVObj@@PAVScene@@ABV?$map@V?$basic_string@DU?$char_traits@D@std@@V?$allocator@D@2@@std@@PAVMaterial@@U?$less@V?$basic_string@DU?$char_traits@D@std@@V?$allocator@D@2@@std@@@2@V?$allocator@U?$pair@$$CBV?$basic_string@DU?$char_traits@D@std@@V?$allocator@D@2@@std@@PAVMaterial@@@std@@@2@@std@@PAVTransformNode@@@Z 00432258     read.obj
 0002:0000327c       __unwindtable$?processGeometry@@YAXPAVObj@@PAVScene@@ABV?$map@V?$basic_string@DU?$char_traits@D@std@@V?$allocator@D@2@@std@@PAVMaterial@@U?$less@V?$basic_string@DU?$char_traits@D@std@@V?$allocator@D@2@@std@@@2@V?$allocator@U?$pair@$$CBV?$basic_string@DU?$char_traits@D@std@@V?$allocator@D@2@@std@@PAVMaterial@@@std@@@2@@std@@PAVTransformNode@@@Z 0043227c     read.obj
 0002:000032a4       __unwindtable$??$use_facet@V?$codecvt@DDH@std@@@std@@YAABV?$codecvt@DDH@0@ABVlocale@0@@Z 004322a4     read.obj
 0002:000032ac       __ehfuncinfo$??$use_facet@V?$codecvt@DDH@std@@@std@@YAABV?$codecvt@DDH@0@ABVlocale@0@@Z 004322ac     read.obj
 0002:000032d0       __catchsym$??$_Buynode@ABUpiecewise_construct_t@std@@V?$tuple@ABV?$basic_string@DU?$char_traits@D@std@@V?$allocator@D@2@@std@@@2@V?$tuple@$$$V@2@@?$_Tree_buy@U?$pair@$$CBV?$basic_string@DU?$char_traits@D@std@@V?$allocator@D@2@@std@@PAVMaterial@@@std@@V?$allocator@U?$pair@$$CBV?$basic_string@DU?$char_traits@D@std@@V?$allocator@D@2@@std@@PAVMaterial@@@std@@@2@@std@@QAEPAU?$_Tree_node@U?$pair@$$CBV?$basic_string@DU?$char_traits@D@std@@V?$allocator@D@2@@std@@PAVMaterial@@@std@@PAX@1@ABUpiecewise_construct_t@1@$$QAV?$tuple@ABV?$basic_string@DU?$char_traits@D@std@@V?$allocator@D@2@@std@@@1@$$QAV?$tuple@$$$V@1@@Z$5 004322d0     read.obj
 0002:000032d0       __catchsym$??$_Buynode@ABUpiecewise_construct_t@std@@V?$tuple@ABV?$basic_string@DU?$char_traits@D@std@@V?$allocator@D@2@@std@@@2@V?$tuple@$$$V@2@@?$_Tree_buy@U?$pair@$$CBV?$basic_string@DU?$char_traits@D@std@@V?$allocator@D@2@@std@@PAVObj@@@std@@V?$allocator@U?$pair@$$CBV?$basic_string@DU?$char_traits@D@std@@V?$allocator@D@2@@std@@PAVObj@@@std@@@2@@std@@QAEPAU?$_Tree_node@U?$pair@$$CBV?$basic_string@DU?$char_traits@D@std@@V?$allocator@D@2@@std@@PAVObj@@@std@@PAX@1@ABUpiecewise_construct_t@1@$$QAV?$tuple@ABV?$basic_string@DU?$char_traits@D@std@@V?$allocator@D@2@@std@@@1@$$QAV?$tuple@$$$V@1@@Z$5 004322d0     read.obj
 0002:000032e0       __tryblocktable$??$_Buynode@ABUpiecewise_construct_t@std@@V?$tuple@ABV?$basic_string@DU?$char_traits@D@std@@V?$allocator@D@2@@std@@@2@V?$tuple@$$$V@2@@?$_Tree_buy@U?$pair@$$CBV?$basic_string@DU?$char_traits@D@std@@V?$allocator@D@2@@std@@PAVMaterial@@@std@@V?$allocator@U?$pair@$$CBV?$basic_string@DU?$char_traits@D@std@@V?$allocator@D@2@@std@@PAVMaterial@@@std@@@2@@std@@QAEPAU?$_Tree_node@U?$pair@$$CBV?$basic_string@DU?$char_traits@D@std@@V?$allocator@D@2@@std@@PAVMaterial@@@std@@PAX@1@ABUpiecewise_construct_t@1@$$QAV?$tuple@ABV?$basic_string@DU?$char_traits@D@std@@V?$allocator@D@2@@std@@@1@$$QAV?$tuple@$$$V@1@@Z 004322e0     read.obj
 0002:000032e0       __tryblocktable$??$_Buynode@ABUpiecewise_construct_t@std@@V?$tuple@ABV?$basic_string@DU?$char_traits@D@std@@V?$allocator@D@2@@std@@@2@V?$tuple@$$$V@2@@?$_Tree_buy@U?$pair@$$CBV?$basic_string@DU?$char_traits@D@std@@V?$allocator@D@2@@std@@PAVObj@@@std@@V?$allocator@U?$pair@$$CBV?$basic_string@DU?$char_traits@D@std@@V?$allocator@D@2@@std@@PAVObj@@@std@@@2@@std@@QAEPAU?$_Tree_node@U?$pair@$$CBV?$basic_string@DU?$char_traits@D@std@@V?$allocator@D@2@@std@@PAVObj@@@std@@PAX@1@ABUpiecewise_construct_t@1@$$QAV?$tuple@ABV?$basic_string@DU?$char_traits@D@std@@V?$allocator@D@2@@std@@@1@$$QAV?$tuple@$$$V@1@@Z 004322e0     read.obj
 0002:000032f4       __unwindtable$??$_Buynode@ABUpiecewise_construct_t@std@@V?$tuple@ABV?$basic_string@DU?$char_traits@D@std@@V?$allocator@D@2@@std@@@2@V?$tuple@$$$V@2@@?$_Tree_buy@U?$pair@$$CBV?$basic_string@DU?$char_traits@D@std@@V?$allocator@D@2@@std@@PAVObj@@@std@@V?$allocator@U?$pair@$$CBV?$basic_string@DU?$char_traits@D@std@@V?$allocator@D@2@@std@@PAVObj@@@std@@@2@@std@@QAEPAU?$_Tree_node@U?$pair@$$CBV?$basic_string@DU?$char_traits@D@std@@V?$allocator@D@2@@std@@PAVObj@@@std@@PAX@1@ABUpiecewise_construct_t@1@$$QAV?$tuple@ABV?$basic_string@DU?$char_traits@D@std@@V?$allocator@D@2@@std@@@1@$$QAV?$tuple@$$$V@1@@Z 004322f4     read.obj
 0002:000032f4       __unwindtable$??$_Buynode@ABUpiecewise_construct_t@std@@V?$tuple@ABV?$basic_string@DU?$char_traits@D@std@@V?$allocator@D@2@@std@@@2@V?$tuple@$$$V@2@@?$_Tree_buy@U?$pair@$$CBV?$basic_string@DU?$char_traits@D@std@@V?$allocator@D@2@@std@@PAVMaterial@@@std@@V?$allocator@U?$pair@$$CBV?$basic_string@DU?$char_traits@D@std@@V?$allocator@D@2@@std@@PAVMaterial@@@std@@@2@@std@@QAEPAU?$_Tree_node@U?$pair@$$CBV?$basic_string@DU?$char_traits@D@std@@V?$allocator@D@2@@std@@PAVMaterial@@@std@@PAX@1@ABUpiecewise_construct_t@1@$$QAV?$tuple@ABV?$basic_string@DU?$char_traits@D@std@@V?$allocator@D@2@@std@@@1@$$QAV?$tuple@$$$V@1@@Z 004322f4     read.obj
 0002:0000330c       __ehfuncinfo$??$_Buynode@ABUpiecewise_construct_t@std@@V?$tuple@ABV?$basic_string@DU?$char_traits@D@std@@V?$allocator@D@2@@std@@@2@V?$tuple@$$$V@2@@?$_Tree_buy@U?$pair@$$CBV?$basic_string@DU?$char_traits@D@std@@V?$allocator@D@2@@std@@PAVObj@@@std@@V?$allocator@U?$pair@$$CBV?$basic_string@DU?$char_traits@D@std@@V?$allocator@D@2@@std@@PAVObj@@@std@@@2@@std@@QAEPAU?$_Tree_node@U?$pair@$$CBV?$basic_string@DU?$char_traits@D@std@@V?$allocator@D@2@@std@@PAVObj@@@std@@PAX@1@ABUpiecewise_construct_t@1@$$QAV?$tuple@ABV?$basic_string@DU?$char_traits@D@std@@V?$allocator@D@2@@std@@@1@$$QAV?$tuple@$$$V@1@@Z 0043230c     read.obj
 0002:0000330c       __ehfuncinfo$??$_Buynode@ABUpiecewise_construct_t@std@@V?$tuple@ABV?$basic_string@DU?$char_traits@D@std@@V?$allocator@D@2@@std@@@2@V?$tuple@$$$V@2@@?$_Tree_buy@U?$pair@$$CBV?$basic_string@DU?$char_traits@D@std@@V?$allocator@D@2@@std@@PAVMaterial@@@std@@V?$allocator@U?$pair@$$CBV?$basic_string@DU?$char_traits@D@std@@V?$allocator@D@2@@std@@PAVMaterial@@@std@@@2@@std@@QAEPAU?$_Tree_node@U?$pair@$$CBV?$basic_string@DU?$char_traits@D@std@@V?$allocator@D@2@@std@@PAVMaterial@@@std@@PAX@1@ABUpiecewise_construct_t@1@$$QAV?$tuple@ABV?$basic_string@DU?$char_traits@D@std@@V?$allocator@D@2@@std@@@1@$$QAV?$tuple@$$$V@1@@Z 0043230c     read.obj
 0002:00003330       __catchsym$??$_Insert_hint@AAU?$pair@$$CBV?$basic_string@DU?$char_traits@D@std@@V?$allocator@D@2@@std@@PAVMaterial@@@std@@PAU?$_Tree_node@U?$pair@$$CBV?$basic_string@DU?$char_traits@D@std@@V?$allocator@D@2@@std@@PAVMaterial@@@std@@PAX@2@@?$_Tree@V?$_Tmap_traits@V?$basic_string@DU?$char_traits@D@std@@V?$allocator@D@2@@std@@PAVMaterial@@U?$less@V?$basic_string@DU?$char_traits@D@std@@V?$allocator@D@2@@std@@@2@V?$allocator@U?$pair@$$CBV?$basic_string@DU?$char_traits@D@std@@V?$allocator@D@2@@std@@PAVMaterial@@@std@@@2@$0A@@std@@@std@@IAE?AV?$_Tree_iterator@V?$_Tree_val@U?$_Tree_simple_types@U?$pair@$$CBV?$basic_string@DU?$char_traits@D@std@@V?$allocator@D@2@@std@@PAVMaterial@@@std@@@std@@@std@@@1@V?$_Tree_const_iterator@V?$_Tree_val@U?$_Tree_simple_types@U?$pair@$$CBV?$basic_string@DU?$char_traits@D@std@@V?$allocator@D@2@@std@@PAVMaterial@@@std@@@std@@@std@@@1@AAU?$pair@$$CBV?$basic_string@DU?$char_traits@D@std@@V?$allocator@D@2@@std@@PAVMaterial@@@1@PAU?$_Tree_node@U?$pair@$$CBV?$basic_string@DU?$char_traits@D@std@@V?$allocator@D@2@@std@@PAVMaterial@@@std@@PAX@1@@Z$2 00432330     read.obj
 0002:00003330       __catchsym$??$_Insert_hint@AAU?$pair@$$CBV?$basic_string@DU?$char_traits@D@std@@V?$allocator@D@2@@std@@PAVObj@@@std@@PAU?$_Tree_node@U?$pair@$$CBV?$basic_string@DU?$char_traits@D@std@@V?$allocator@D@2@@std@@PAVObj@@@std@@PAX@2@@?$_Tree@V?$_Tmap_traits@V?$basic_string@DU?$char_traits@D@std@@V?$allocator@D@2@@std@@PAVObj@@U?$less@V?$basic_string@DU?$char_traits@D@std@@V?$allocator@D@2@@std@@@2@V?$allocator@U?$pair@$$CBV?$basic_string@DU?$char_traits@D@std@@V?$allocator@D@2@@std@@PAVObj@@@std@@@2@$0A@@std@@@std@@IAE?AV?$_Tree_iterator@V?$_Tree_val@U?$_Tree_simple_types@U?$pair@$$CBV?$basic_string@DU?$char_traits@D@std@@V?$allocator@D@2@@std@@PAVObj@@@std@@@std@@@std@@@1@V?$_Tree_const_iterator@V?$_Tree_val@U?$_Tree_simple_types@U?$pair@$$CBV?$basic_string@DU?$char_traits@D@std@@V?$allocator@D@2@@std@@PAVObj@@@std@@@std@@@std@@@1@AAU?$pair@$$CBV?$basic_string@DU?$char_traits@D@std@@V?$allocator@D@2@@std@@PAVObj@@@1@PAU?$_Tree_node@U?$pair@$$CBV?$basic_string@DU?$char_traits@D@std@@V?$allocator@D@2@@std@@PAVObj@@@std@@PAX@1@@Z$2 00432330     read.obj
 0002:00003340       __unwindtable$??$_Insert_hint@AAU?$pair@$$CBV?$basic_string@DU?$char_traits@D@std@@V?$allocator@D@2@@std@@PAVObj@@@std@@PAU?$_Tree_node@U?$pair@$$CBV?$basic_string@DU?$char_traits@D@std@@V?$allocator@D@2@@std@@PAVObj@@@std@@PAX@2@@?$_Tree@V?$_Tmap_traits@V?$basic_string@DU?$char_traits@D@std@@V?$allocator@D@2@@std@@PAVObj@@U?$less@V?$basic_string@DU?$char_traits@D@std@@V?$allocator@D@2@@std@@@2@V?$allocator@U?$pair@$$CBV?$basic_string@DU?$char_traits@D@std@@V?$allocator@D@2@@std@@PAVObj@@@std@@@2@$0A@@std@@@std@@IAE?AV?$_Tree_iterator@V?$_Tree_val@U?$_Tree_simple_types@U?$pair@$$CBV?$basic_string@DU?$char_traits@D@std@@V?$allocator@D@2@@std@@PAVObj@@@std@@@std@@@std@@@1@V?$_Tree_const_iterator@V?$_Tree_val@U?$_Tree_simple_types@U?$pair@$$CBV?$basic_string@DU?$char_traits@D@std@@V?$allocator@D@2@@std@@PAVObj@@@std@@@std@@@std@@@1@AAU?$pair@$$CBV?$basic_string@DU?$char_traits@D@std@@V?$allocator@D@2@@std@@PAVObj@@@1@PAU?$_Tree_node@U?$pair@$$CBV?$basic_string@DU?$char_traits@D@std@@V?$allocator@D@2@@std@@PAVObj@@@std@@PAX@1@@Z 00432340     read.obj
 0002:00003340       __unwindtable$??$_Insert_hint@AAU?$pair@$$CBV?$basic_string@DU?$char_traits@D@std@@V?$allocator@D@2@@std@@PAVMaterial@@@std@@PAU?$_Tree_node@U?$pair@$$CBV?$basic_string@DU?$char_traits@D@std@@V?$allocator@D@2@@std@@PAVMaterial@@@std@@PAX@2@@?$_Tree@V?$_Tmap_traits@V?$basic_string@DU?$char_traits@D@std@@V?$allocator@D@2@@std@@PAVMaterial@@U?$less@V?$basic_string@DU?$char_traits@D@std@@V?$allocator@D@2@@std@@@2@V?$allocator@U?$pair@$$CBV?$basic_string@DU?$char_traits@D@std@@V?$allocator@D@2@@std@@PAVMaterial@@@std@@@2@$0A@@std@@@std@@IAE?AV?$_Tree_iterator@V?$_Tree_val@U?$_Tree_simple_types@U?$pair@$$CBV?$basic_string@DU?$char_traits@D@std@@V?$allocator@D@2@@std@@PAVMaterial@@@std@@@std@@@std@@@1@V?$_Tree_const_iterator@V?$_Tree_val@U?$_Tree_simple_types@U?$pair@$$CBV?$basic_string@DU?$char_traits@D@std@@V?$allocator@D@2@@std@@PAVMaterial@@@std@@@std@@@std@@@1@AAU?$pair@$$CBV?$basic_string@DU?$char_traits@D@std@@V?$allocator@D@2@@std@@PAVMaterial@@@1@PAU?$_Tree_node@U?$pair@$$CBV?$basic_string@DU?$char_traits@D@std@@V?$allocator@D@2@@std@@PAVMaterial@@@std@@PAX@1@@Z 00432340     read.obj
 0002:00003350       __tryblocktable$??$_Insert_hint@AAU?$pair@$$CBV?$basic_string@DU?$char_traits@D@std@@V?$allocator@D@2@@std@@PAVMaterial@@@std@@PAU?$_Tree_node@U?$pair@$$CBV?$basic_string@DU?$char_traits@D@std@@V?$allocator@D@2@@std@@PAVMaterial@@@std@@PAX@2@@?$_Tree@V?$_Tmap_traits@V?$basic_string@DU?$char_traits@D@std@@V?$allocator@D@2@@std@@PAVMaterial@@U?$less@V?$basic_string@DU?$char_traits@D@std@@V?$allocator@D@2@@std@@@2@V?$allocator@U?$pair@$$CBV?$basic_string@DU?$char_traits@D@std@@V?$allocator@D@2@@std@@PAVMaterial@@@std@@@2@$0A@@std@@@std@@IAE?AV?$_Tree_iterator@V?$_Tree_val@U?$_Tree_simple_types@U?$pair@$$CBV?$basic_string@DU?$char_traits@D@std@@V?$allocator@D@2@@std@@PAVMaterial@@@std@@@std@@@std@@@1@V?$_Tree_const_iterator@V?$_Tree_val@U?$_Tree_simple_types@U?$pair@$$CBV?$basic_string@DU?$char_traits@D@std@@V?$allocator@D@2@@std@@PAVMaterial@@@std@@@std@@@std@@@1@AAU?$pair@$$CBV?$basic_string@DU?$char_traits@D@std@@V?$allocator@D@2@@std@@PAVMaterial@@@1@PAU?$_Tree_node@U?$pair@$$CBV?$basic_string@DU?$char_traits@D@std@@V?$allocator@D@2@@std@@PAVMaterial@@@std@@PAX@1@@Z 00432350     read.obj
 0002:00003350       __tryblocktable$??$_Insert_hint@AAU?$pair@$$CBV?$basic_string@DU?$char_traits@D@std@@V?$allocator@D@2@@std@@PAVObj@@@std@@PAU?$_Tree_node@U?$pair@$$CBV?$basic_string@DU?$char_traits@D@std@@V?$allocator@D@2@@std@@PAVObj@@@std@@PAX@2@@?$_Tree@V?$_Tmap_traits@V?$basic_string@DU?$char_traits@D@std@@V?$allocator@D@2@@std@@PAVObj@@U?$less@V?$basic_string@DU?$char_traits@D@std@@V?$allocator@D@2@@std@@@2@V?$allocator@U?$pair@$$CBV?$basic_string@DU?$char_traits@D@std@@V?$allocator@D@2@@std@@PAVObj@@@std@@@2@$0A@@std@@@std@@IAE?AV?$_Tree_iterator@V?$_Tree_val@U?$_Tree_simple_types@U?$pair@$$CBV?$basic_string@DU?$char_traits@D@std@@V?$allocator@D@2@@std@@PAVObj@@@std@@@std@@@std@@@1@V?$_Tree_const_iterator@V?$_Tree_val@U?$_Tree_simple_types@U?$pair@$$CBV?$basic_string@DU?$char_traits@D@std@@V?$allocator@D@2@@std@@PAVObj@@@std@@@std@@@std@@@1@AAU?$pair@$$CBV?$basic_string@DU?$char_traits@D@std@@V?$allocator@D@2@@std@@PAVObj@@@1@PAU?$_Tree_node@U?$pair@$$CBV?$basic_string@DU?$char_traits@D@std@@V?$allocator@D@2@@std@@PAVObj@@@std@@PAX@1@@Z 00432350     read.obj
 0002:00003364       __ehfuncinfo$??$_Insert_hint@AAU?$pair@$$CBV?$basic_string@DU?$char_traits@D@std@@V?$allocator@D@2@@std@@PAVObj@@@std@@PAU?$_Tree_node@U?$pair@$$CBV?$basic_string@DU?$char_traits@D@std@@V?$allocator@D@2@@std@@PAVObj@@@std@@PAX@2@@?$_Tree@V?$_Tmap_traits@V?$basic_string@DU?$char_traits@D@std@@V?$allocator@D@2@@std@@PAVObj@@U?$less@V?$basic_string@DU?$char_traits@D@std@@V?$allocator@D@2@@std@@@2@V?$allocator@U?$pair@$$CBV?$basic_string@DU?$char_traits@D@std@@V?$allocator@D@2@@std@@PAVObj@@@std@@@2@$0A@@std@@@std@@IAE?AV?$_Tree_iterator@V?$_Tree_val@U?$_Tree_simple_types@U?$pair@$$CBV?$basic_string@DU?$char_traits@D@std@@V?$allocator@D@2@@std@@PAVObj@@@std@@@std@@@std@@@1@V?$_Tree_const_iterator@V?$_Tree_val@U?$_Tree_simple_types@U?$pair@$$CBV?$basic_string@DU?$char_traits@D@std@@V?$allocator@D@2@@std@@PAVObj@@@std@@@std@@@std@@@1@AAU?$pair@$$CBV?$basic_string@DU?$char_traits@D@std@@V?$allocator@D@2@@std@@PAVObj@@@1@PAU?$_Tree_node@U?$pair@$$CBV?$basic_string@DU?$char_traits@D@std@@V?$allocator@D@2@@std@@PAVObj@@@std@@PAX@1@@Z 00432364     read.obj
 0002:00003364       __ehfuncinfo$??$_Insert_hint@AAU?$pair@$$CBV?$basic_string@DU?$char_traits@D@std@@V?$allocator@D@2@@std@@PAVMaterial@@@std@@PAU?$_Tree_node@U?$pair@$$CBV?$basic_string@DU?$char_traits@D@std@@V?$allocator@D@2@@std@@PAVMaterial@@@std@@PAX@2@@?$_Tree@V?$_Tmap_traits@V?$basic_string@DU?$char_traits@D@std@@V?$allocator@D@2@@std@@PAVMaterial@@U?$less@V?$basic_string@DU?$char_traits@D@std@@V?$allocator@D@2@@std@@@2@V?$allocator@U?$pair@$$CBV?$basic_string@DU?$char_traits@D@std@@V?$allocator@D@2@@std@@PAVMaterial@@@std@@@2@$0A@@std@@@std@@IAE?AV?$_Tree_iterator@V?$_Tree_val@U?$_Tree_simple_types@U?$pair@$$CBV?$basic_string@DU?$char_traits@D@std@@V?$allocator@D@2@@std@@PAVMaterial@@@std@@@std@@@std@@@1@V?$_Tree_const_iterator@V?$_Tree_val@U?$_Tree_simple_types@U?$pair@$$CBV?$basic_string@DU?$char_traits@D@std@@V?$allocator@D@2@@std@@PAVMaterial@@@std@@@std@@@std@@@1@AAU?$pair@$$CBV?$basic_string@DU?$char_traits@D@std@@V?$allocator@D@2@@std@@PAVMaterial@@@1@PAU?$_Tree_node@U?$pair@$$CBV?$basic_string@DU?$char_traits@D@std@@V?$allocator@D@2@@std@@PAVMaterial@@@std@@PAX@1@@Z 00432364     read.obj
 0002:00003410       __unwindtable$?shadowAttenuation@PointLight@@UBE?AVvec3f@@ABV2@@Z 00432410     light.obj
 0002:00003418       __ehfuncinfo$?shadowAttenuation@PointLight@@UBE?AVvec3f@@ABV2@@Z 00432418     light.obj
 0002:0000343c       __ehfuncinfo$??1Scene@@UAE@XZ 0043243c     scene.obj
 0002:00003460       __unwindtable$??1Scene@@UAE@XZ 00432460     scene.obj
 0002:00003488       __unwindtable$?intersect@Scene@@QBE_NABVray@@AAVisect@@@Z 00432488     scene.obj
 0002:00003490       __ehfuncinfo$?intersect@Scene@@QBE_NABVray@@AAVisect@@@Z 00432490     scene.obj
 0002:000034b4       __unwindtable$?intersectLocal@Cone@@UBE_NABVray@@AAVisect@@@Z 004324b4     Cone.obj
 0002:000034b4       __unwindtable$?intersectLocal@Cylinder@@UBE_NABVray@@AAVisect@@@Z 004324b4     Cone.obj
 0002:000034bc       __ehfuncinfo$?intersectLocal@Cylinder@@UBE_NABVray@@AAVisect@@@Z 004324bc     Cone.obj
 0002:000034bc       __ehfuncinfo$?intersectLocal@Cone@@UBE_NABVray@@AAVisect@@@Z 004324bc     Cone.obj
 0002:000034e0       __catchsym$?resize@?$vector@Vvec3f@@V?$allocator@Vvec3f@@@std@@@std@@QAEXI@Z$2 004324e0     trimesh.obj
 0002:000034f0       __unwindtable$?resize@?$vector@Vvec3f@@V?$allocator@Vvec3f@@@std@@@std@@QAEXI@Z 004324f0     trimesh.obj
 0002:00003500       __tryblocktable$?resize@?$vector@Vvec3f@@V?$allocator@Vvec3f@@@std@@@std@@QAEXI@Z 00432500     trimesh.obj
 0002:00003514       __ehfuncinfo$?resize@?$vector@Vvec3f@@V?$allocator@Vvec3f@@@std@@@std@@QAEXI@Z 00432514     trimesh.obj
 0002:00003538       __catchsym$?_Reallocate@?$vector@Vvec3f@@V?$allocator@Vvec3f@@@std@@@std@@IAEXI@Z$2 00432538     trimesh.obj
 0002:00003548       __unwindtable$?_Reallocate@?$vector@Vvec3f@@V?$allocator@Vvec3f@@@std@@@std@@IAEXI@Z 00432548     trimesh.obj
 0002:00003558       __tryblocktable$?_Reallocate@?$vector@Vvec3f@@V?$allocator@Vvec3f@@@std@@@std@@IAEXI@Z 00432558     trimesh.obj
 0002:0000356c       __ehfuncinfo$?_Reallocate@?$vector@Vvec3f@@V?$allocator@Vvec3f@@@std@@@std@@IAEXI@Z 0043256c     trimesh.obj
 0002:00003590       __unwindtable$?addFace@Trimesh@@QAE_NHHH@Z 00432590     trimesh.obj
 0002:00003598       __ehfuncinfo$?addFace@Trimesh@@QAE_NHHH@Z 00432598     trimesh.obj
 0002:000035c0       $T27463                    004325c0     fltkd:Fl.obj
 0002:000035e0       $T27466                    004325e0     fltkd:Fl.obj
 0002:000035e8       $T27121                    004325e8     fltkd:fl_ask.obj
 0002:00003608       $T27124                    00432608     fltkd:fl_ask.obj
 0002:00003648       $T1793                     00432648     fltkd:Fl_Window.obj
 0002:00003668       $T1796                     00432668     fltkd:Fl_Window.obj
 0002:00003670       $T1803                     00432670     fltkd:Fl_Window.obj
 0002:00003690       $T1805                     00432690     fltkd:Fl_Window.obj
 0002:00003698       $T28673                    00432698     fltkd:Fl_Gl_Window.obj
 0002:000036b8       $T28676                    004326b8     fltkd:Fl_Gl_Window.obj
 0002:000036c0       $T2933                     004326c0     fltkd:Fl_Menu_.obj
 0002:000036e0       $T2936                     004326e0     fltkd:Fl_Menu_.obj
 0002:000036e8       $T2947                     004326e8     fltkd:Fl_Menu_.obj
 0002:00003708       $T2949                     00432708     fltkd:Fl_Menu_.obj
 0002:00003710       $T2376                     00432710     fltkd:Fl_Valuator.obj
 0002:00003730       $T2380                     00432730     fltkd:Fl_Valuator.obj
 0002:00003738       $T2495                     00432738     fltkd:Fl_Value_Slider.obj
 0002:00003758       $T2499                     00432758     fltkd:Fl_Value_Slider.obj
 0002:00003760       $T1726                     00432760     fltkd:Fl_Button.obj
 0002:00003780       $T1729                     00432780     fltkd:Fl_Button.obj
 0002:00003788       $T4506                     00432788     fltkd:fl_file_chooser.obj
 0002:000037a8       $T4509                     004327a8     fltkd:fl_file_chooser.obj
 0002:00003820       $T4638                     00432820     fltkd:fl_file_chooser.obj
 0002:00003840       $T4640                     00432840     fltkd:fl_file_chooser.obj
 0002:00003848       $T4514                     00432848     fltkd:fl_file_chooser.obj
 0002:00003868       $T4516                     00432868     fltkd:fl_file_chooser.obj
 0002:00003870       $T4527                     00432870     fltkd:fl_file_chooser.obj
 0002:00003890       $T4529                     00432890     fltkd:fl_file_chooser.obj
 0002:000038a0       $T4621                     004328a0     fltkd:fl_file_chooser.obj
 0002:000038c0       $T4623                     004328c0     fltkd:fl_file_chooser.obj
 0002:000038d0       $T2922                     004328d0     fltkd:Fl_Group.obj
 0002:000038f0       $T2925                     004328f0     fltkd:Fl_Group.obj
 0002:000038f8       $T2941                     004328f8     fltkd:Fl_Group.obj
 0002:00003918       $T2943                     00432918     fltkd:Fl_Group.obj
 0002:00003920       $T3765                     00432920     fltkd:Fl_Input_.obj
 0002:00003940       $T3768                     00432940     fltkd:Fl_Input_.obj
 0002:00003948       $T3322                     00432948     fltkd:Fl_Menu.obj
 0002:00003968       $T3325                     00432968     fltkd:Fl_Menu.obj
 0002:00003970       $T3348                     00432970     fltkd:Fl_Menu.obj
 0002:00003990       $T3352                     00432990     fltkd:Fl_Menu.obj
 0002:000039a0       $T3382                     004329a0     fltkd:Fl_Menu.obj
 0002:000039c0       $T3384                     004329c0     fltkd:Fl_Menu.obj
 0002:000039c8       $T3507                     004329c8     fltkd:Fl_Menu.obj
 0002:000039e8       $T3509                     004329e8     fltkd:Fl_Menu.obj
 0002:00003a08       $T2588                     00432a08     fltkd:Fl_Slider.obj
 0002:00003a28       $T2591                     00432a28     fltkd:Fl_Slider.obj
 0002:00003a30       $T2606                     00432a30     fltkd:Fl_Slider.obj
 0002:00003a50       $T2608                     00432a50     fltkd:Fl_Slider.obj
 0002:00003a58       $T27023                    00432a58     fltkd:fl_font.obj
 0002:00003a78       $T27026                    00432a78     fltkd:fl_font.obj
 0002:00003a80       $T2989                     00432a80     fltkd:Fl_Browser_.obj
 0002:00003aa0       $T2992                     00432aa0     fltkd:Fl_Browser_.obj
 0002:00003ab8       $T26993                    00432ab8     fltkd:Fl_Menu_Window.obj
 0002:00003ad8       $T26996                    00432ad8     fltkd:Fl_Menu_Window.obj
 0002:00003ae0       $T2651                     00432ae0     fltkd:Fl_Scrollbar.obj
 0002:00003b00       $T2654                     00432b00     fltkd:Fl_Scrollbar.obj
 0002:00003b08       __sehtable$__onexit        00432b08     MSVCRT:atonexit.obj
 0002:00003b28       __sehtable$___tmainCRTStartup 00432b28     MSVCRT:crtexew.obj
 0002:00003b48       __sehtable$??_M@YGXPAXIHP6EX0@Z@Z 00432b48     MSVCRT:ehvecdtr.obj
 0002:00003b68       __sehtable$?__ArrayUnwind@@YGXPAXIHP6EX0@Z@Z 00432b68     MSVCRT:ehvecdtr.obj
 0002:00003b88       __sehtable$__IsNonwritableInCurrentImage 00432b88     MSVCRT:pesect.obj
 0002:000040cc       .idata$6                   004330cc     wsock32:WSOCK32.dll
 0002:00004234       .idata$6                   00433234     opengl32:OPENGL32.dll
 0002:000042d0       .idata$6                   004332d0     kernel32:KERNEL32.dll
 0002:0000458a       .idata$6                   0043358a     user32:USER32.dll
 0002:00004746       .idata$6                   00433746     gdi32:GDI32.dll
 0002:00004aea       .idata$6                   00433aea     MSVCRT:MSVCR120.dll
 0002:000059fe       .idata$6                   004349fe     msvcprt:MSVCP120.dll
 0002:00005a20       .idata$6                   00434a20     MSVCRTD:MSVCR120D.dll
 0003:00000000       ?iArg@?1??GetOption@@YAHHPAPADPAD0@Z@4HA 00435000     getopt.obj
 0003:000000f4       _reset_clock               004350f4     fltkd:Fl.obj
 0003:000000f8       _iconlabel                 004350f8     fltkd:fl_ask.obj
 0003:00000110       $SG26863                   00435110     fltkd:fl_ask.obj
 0003:00000114       $SG26949                   00435114     fltkd:fl_ask.obj
 0003:00000118       $SG26950                   00435118     fltkd:fl_ask.obj
 0003:0000011c       $SG26951                   0043511c     fltkd:fl_ask.obj
 0003:00000120       $SG26952                   00435120     fltkd:fl_ask.obj
 0003:00000128       $SG26961                   00435128     fltkd:fl_ask.obj
 0003:0000012c       $SG26963                   0043512c     fltkd:fl_ask.obj
 0003:00000130       $SG26916                   00435130     fltkd:fl_ask.obj
 0003:00000134       $SG26889                   00435134     fltkd:fl_ask.obj
 0003:00000138       $SG26972                   00435138     fltkd:fl_ask.obj
 0003:0000013c       $SG26974                   0043513c     fltkd:fl_ask.obj
 0003:00000144       $SG28508                   00435144     fltkd:Fl_Gl_Window.obj
 0003:0000015c       $SG28550                   0043515c     fltkd:Fl_Gl_Window.obj
 0003:0000016c       $SG28553                   0043516c     fltkd:Fl_Gl_Window.obj
 0003:00000174       $SG28556                   00435174     fltkd:Fl_Gl_Window.obj
 0003:00000184       $SG2343                    00435184     fltkd:Fl_Valuator.obj
 0003:00000188       $SG2350                    00435188     fltkd:Fl_Valuator.obj
 0003:00000190       _current_callback          00435190     fltkd:fl_file_chooser.obj
 0003:00000194       $SG4022                    00435194     fltkd:fl_file_chooser.obj
 0003:000001a0       $SG4024                    004351a0     fltkd:fl_file_chooser.obj
 0003:000001a4       $SG4027                    004351a4     fltkd:fl_file_chooser.obj
 0003:000001b8       $SG4031                    004351b8     fltkd:fl_file_chooser.obj
 0003:000001c8       $SG4064                    004351c8     fltkd:fl_file_chooser.obj
 0003:000001dc       $SG4071                    004351dc     fltkd:fl_file_chooser.obj
 0003:000001f0       $SG4207                    004351f0     fltkd:fl_file_chooser.obj
 0003:000001f4       $SG4212                    004351f4     fltkd:fl_file_chooser.obj
 0003:00000208       $SG4217                    00435208     fltkd:fl_file_chooser.obj
 0003:00000210       $SG4219                    00435210     fltkd:fl_file_chooser.obj
 0003:00000214       $SG4224                    00435214     fltkd:fl_file_chooser.obj
 0003:0000021c       $SG4226                    0043521c     fltkd:fl_file_chooser.obj
 0003:00000220       $SG4231                    00435220     fltkd:fl_file_chooser.obj
 0003:00000230       $SG4247                    00435230     fltkd:fl_file_chooser.obj
 0003:0000023c       $SG4249                    0043523c     fltkd:fl_file_chooser.obj
 0003:00000240       $SG4254                    00435240     fltkd:fl_file_chooser.obj
 0003:00000250       $SG4256                    00435250     fltkd:fl_file_chooser.obj
 0003:00000254       $SG4261                    00435254     fltkd:fl_file_chooser.obj
 0003:00000264       $SG4263                    00435264     fltkd:fl_file_chooser.obj
 0003:00000268       $SG4136                    00435268     fltkd:fl_file_chooser.obj
 0003:0000026c       $SG4145                    0043526c     fltkd:fl_file_chooser.obj
 0003:00000270       $SG4297                    00435270     fltkd:fl_file_chooser.obj
 0003:00000284       $SG28044                   00435284     fltkd:Fl_x.obj
 0003:0000028c       $SG27899                   0043528c     fltkd:Fl_x.obj
 0003:0000029c       $SG970                     0043529c     fltkd:Fl_compose.obj
 0003:00000360       $SG931                     00435360     fltkd:vsnprintf.obj
 0003:00000368       $SG2365                    00435368     fltkd:Fl_Input.obj
 0003:00000370       $SG2394                    00435370     fltkd:Fl_Input.obj
 0003:00000374       $SG3298                    00435374     fltkd:Fl_Input_.obj
 0003:00000380       _table                     00435380     fltkd:fl_shortcut.obj
 0003:00000470       $SG2303                    00435470     fltkd:fl_shortcut.obj
 0003:0000047c       $SG2304                    0043547c     fltkd:fl_shortcut.obj
 0003:00000480       $SG2305                    00435480     fltkd:fl_shortcut.obj
 0003:00000488       $SG2306                    00435488     fltkd:fl_shortcut.obj
 0003:00000490       $SG2307                    00435490     fltkd:fl_shortcut.obj
 0003:00000498       $SG2308                    00435498     fltkd:fl_shortcut.obj
 0003:000004a4       $SG2309                    004354a4     fltkd:fl_shortcut.obj
 0003:000004ac       $SG2310                    004354ac     fltkd:fl_shortcut.obj
 0003:000004b4       $SG2311                    004354b4     fltkd:fl_shortcut.obj
 0003:000004bc       $SG2312                    004354bc     fltkd:fl_shortcut.obj
 0003:000004c0       $SG2313                    004354c0     fltkd:fl_shortcut.obj
 0003:000004c8       $SG2314                    004354c8     fltkd:fl_shortcut.obj
 0003:000004d0       $SG2315                    004354d0     fltkd:fl_shortcut.obj
 0003:000004d8       $SG2316                    004354d8     fltkd:fl_shortcut.obj
 0003:000004e4       $SG2317                    004354e4     fltkd:fl_shortcut.obj
 0003:000004e8       $SG2318                    004354e8     fltkd:fl_shortcut.obj
 0003:000004f0       $SG2319                    004354f0     fltkd:fl_shortcut.obj
 0003:000004f8       $SG2320                    004354f8     fltkd:fl_shortcut.obj
 0003:00000500       $SG2321                    00435500     fltkd:fl_shortcut.obj
 0003:0000050c       $SG2322                    0043550c     fltkd:fl_shortcut.obj
 0003:00000518       $SG2323                    00435518     fltkd:fl_shortcut.obj
 0003:00000520       $SG2324                    00435520     fltkd:fl_shortcut.obj
 0003:00000528       $SG2325                    00435528     fltkd:fl_shortcut.obj
 0003:00000534       $SG2326                    00435534     fltkd:fl_shortcut.obj
 0003:00000540       $SG2327                    00435540     fltkd:fl_shortcut.obj
 0003:0000054c       $SG2328                    0043554c     fltkd:fl_shortcut.obj
 0003:00000554       $SG2329                    00435554     fltkd:fl_shortcut.obj
 0003:0000055c       $SG2330                    0043555c     fltkd:fl_shortcut.obj
 0003:00000564       $SG2331                    00435564     fltkd:fl_shortcut.obj
 0003:0000056c       $SG2332                    0043556c     fltkd:fl_shortcut.obj
 0003:00000574       $SG2341                    00435574     fltkd:fl_shortcut.obj
 0003:0000057c       $SG2343                    0043557c     fltkd:fl_shortcut.obj
 0003:00000584       $SG2345                    00435584     fltkd:fl_shortcut.obj
 0003:0000058c       $SG2347                    0043558c     fltkd:fl_shortcut.obj
 0003:00000594       $SG2363                    00435594     fltkd:fl_shortcut.obj
 0003:000005a4       $SG25957                   004355a4     fltkd:Fl_abort.obj
 0003:000005ac       $SG25968                   004355ac     fltkd:Fl_abort.obj
 0003:000005b4       _fl_cmap                   004355b4     fltkd:fl_color.obj
 0003:000009b8       _active_ramp               004359b8     fltkd:fl_boxtype.obj
 0003:000009d0       _inactive_ramp             004359d0     fltkd:fl_boxtype.obj
 0003:000009e8       _draw_it_active            004359e8     fltkd:fl_boxtype.obj
 0003:000009f0       _fl_box_table              004359f0     fltkd:fl_boxtype.obj
 0003:00000b20       $SG1897                    00435b20     fltkd:fl_boxtype.obj
 0003:00000b28       $SG1912                    00435b28     fltkd:fl_boxtype.obj
 0003:00000b30       $SG1927                    00435b30     fltkd:fl_boxtype.obj
 0003:00000b3c       $SG1944                    00435b3c     fltkd:fl_boxtype.obj
 0003:00000b48       $SG1959                    00435b48     fltkd:fl_boxtype.obj
 0003:00000b54       $SG1974                    00435b54     fltkd:fl_boxtype.obj
 0003:00000b60       $SG1350                    00435b60     fltkd:fl_draw.obj
 0003:00000b68       _built_in_table            00435b68     fltkd:fl_font.obj
 0003:00000bec       $SG26919                   00435bec     fltkd:fl_font.obj
 0003:00000bf4       $SG26920                   00435bf4     fltkd:fl_font.obj
 0003:00000bfc       $SG26921                   00435bfc     fltkd:fl_font.obj
 0003:00000c04       $SG26922                   00435c04     fltkd:fl_font.obj
 0003:00000c0c       $SG26923                   00435c0c     fltkd:fl_font.obj
 0003:00000c1c       $SG26924                   00435c1c     fltkd:fl_font.obj
 0003:00000c2c       $SG26925                   00435c2c     fltkd:fl_font.obj
 0003:00000c3c       $SG26926                   00435c3c     fltkd:fl_font.obj
 0003:00000c4c       $SG26927                   00435c4c     fltkd:fl_font.obj
 0003:00000c60       $SG26928                   00435c60     fltkd:fl_font.obj
 0003:00000c74       $SG26929                   00435c74     fltkd:fl_font.obj
 0003:00000c88       $SG26930                   00435c88     fltkd:fl_font.obj
 0003:00000c9c       $SG26931                   00435c9c     fltkd:fl_font.obj
 0003:00000ca4       $SG26932                   00435ca4     fltkd:fl_font.obj
 0003:00000cb0       $SG26933                   00435cb0     fltkd:fl_font.obj
 0003:00000cbc       $SG26934                   00435cbc     fltkd:fl_font.obj
 0003:00000cc8       _table                     00435cc8     fltkd:fl_labeltype.obj
 0003:00000d0c       $SG964                     00435d0c     fltkd:filename_expand.obj
 0003:00000d14       $SG1011                    00435d14     fltkd:filename_absolute.obj
 0003:00000d18       $SG25487                   00435d18     fltkd:scandir.obj
 0003:00000d1c       $SG25489                   00435d1c     fltkd:scandir.obj
 0003:00000d3c       $SG25791                   00435d3c     fltkd:fl_call_main.obj
 0003:00000d40       $SG25792                   00435d40     fltkd:fl_call_main.obj
 0003:00000d48       $SG25793                   00435d48     fltkd:fl_call_main.obj
 0003:00000d4c       $SG25794                   00435d4c     fltkd:fl_call_main.obj
 0003:00000d54       $SG25795                   00435d54     fltkd:fl_call_main.obj
 0003:00000d58       $SG25796                   00435d58     fltkd:fl_call_main.obj
 0003:000013e8       _allocator_arg             004363e8     main.obj
 0003:000013e9       _piecewise_construct       004363e9     main.obj
 0003:000013ea       __Tuple_alloc              004363ea     RayTracer.obj
 0003:000013eb       _ignore                    004363eb     RayTracer.obj
 0003:000013ec       _allocator_arg             004363ec     RayTracer.obj
 0003:000013ed       _piecewise_construct       004363ed     RayTracer.obj
 0003:000013f8       _allocator_arg             004363f8     TraceGLWindow.obj
 0003:000013f9       _piecewise_construct       004363f9     TraceGLWindow.obj
 0003:000013fa       _allocator_arg             004363fa     TraceUI.obj
 0003:000013fb       _piecewise_construct       004363fb     TraceUI.obj
 0003:000013fc       _done                      004363fc     TraceUI.obj
 0003:00001438       __Tuple_alloc              00436438     parse.obj
 0003:00001439       _ignore                    00436439     parse.obj
 0003:0000143a       _allocator_arg             0043643a     parse.obj
 0003:0000143b       _piecewise_construct       0043643b     parse.obj
 0003:0000143c       __Tuple_alloc              0043643c     read.obj
 0003:0000143d       _ignore                    0043643d     read.obj
 0003:0000143e       _allocator_arg             0043643e     read.obj
 0003:0000143f       _piecewise_construct       0043643f     read.obj
 0003:00001448       _allocator_arg             00436448     vecmath.obj
 0003:00001449       _piecewise_construct       00436449     vecmath.obj
 0003:0000144a       _allocator_arg             0043644a     camera.obj
 0003:0000144b       _piecewise_construct       0043644b     camera.obj
 0003:0000144c       _allocator_arg             0043644c     light.obj
 0003:0000144d       _piecewise_construct       0043644d     light.obj
 0003:0000144e       _allocator_arg             0043644e     material.obj
 0003:0000144f       _piecewise_construct       0043644f     material.obj
 0003:00001450       _allocator_arg             00436450     ray.obj
 0003:00001451       _piecewise_construct       00436451     ray.obj
 0003:00001452       _allocator_arg             00436452     scene.obj
 0003:00001453       _piecewise_construct       00436453     scene.obj
 0003:00001454       _allocator_arg             00436454     Box.obj
 0003:00001455       _piecewise_construct       00436455     Box.obj
 0003:00001456       _allocator_arg             00436456     Cone.obj
 0003:00001457       _piecewise_construct       00436457     Cone.obj
 0003:00001458       _allocator_arg             00436458     Cylinder.obj
 0003:00001459       _piecewise_construct       00436459     Cylinder.obj
 0003:0000145a       _allocator_arg             0043645a     Sphere.obj
 0003:0000145b       _piecewise_construct       0043645b     Sphere.obj
 0003:0000145c       _allocator_arg             0043645c     Square.obj
 0003:0000145d       _piecewise_construct       0043645d     Square.obj
 0003:0000145e       _allocator_arg             0043645e     trimesh.obj
 0003:0000145f       _piecewise_construct       0043645f     trimesh.obj
 0003:00001468       _free_check                00436468     fltkd:Fl.obj
 0003:00001478       _missed_timeout_by         00436478     fltkd:Fl.obj
 0003:0000148c       _in_idle                   0043648c     fltkd:Fl.obj
 0003:000014a4       _first_check               004364a4     fltkd:Fl.obj
 0003:000014a8       _free_timeout              004364a8     fltkd:Fl.obj
 0003:000014b0       _next_check                004364b0     fltkd:Fl.obj
 0003:000014bc       _?prevclock@?1??elapse_timeouts@@YAXXZ@4KA 004364bc     fltkd:Fl.obj
 0003:000014d0       _first_timeout             004364d0     fltkd:Fl.obj
 0003:000014dc       _handlers                  004364dc     fltkd:Fl.obj
 0003:000014e0       $SG26421                   004364e0     fltkd:Fl.obj
 0003:000014e4       _icon                      004364e4     fltkd:fl_ask.obj
 0003:000014e8       _input                     004364e8     fltkd:fl_ask.obj
 0003:000014ec       _message_form              004364ec     fltkd:fl_ask.obj
 0003:000014f0       _message                   004364f0     fltkd:fl_ask.obj
 0003:000014f4       _button                    004364f4     fltkd:fl_ask.obj
 0003:00001505       _SWAP_TYPE                 00436505     fltkd:Fl_Gl_Window.obj
 0003:0000150c       _?ortho_context@?CO@??flush@Fl_Gl_Window@@UAEXXZ@4PAUHGLRC__@@A 0043650c     fltkd:Fl_Gl_Window.obj
 0003:00001510       _?ortho_window@?CO@??flush@Fl_Gl_Window@@UAEXXZ@4PAV2@A 00436510     fltkd:Fl_Gl_Window.obj
 0003:00001514       _obj_queue                 00436514     fltkd:Fl_Widget.obj
 0003:00001564       _obj_tail                  00436564     fltkd:Fl_Widget.obj
 0003:00001568       _obj_head                  00436568     fltkd:Fl_Widget.obj
 0003:00001570       _?f@?1??fl_file_chooser@@YAPADPBD00@Z@4PAVFCW@@A 00436570     fltkd:fl_file_chooser.obj
 0003:00001574       _extra_button              00436574     fltkd:fl_file_chooser.obj
 0003:00001580       $SG4242                    00436580     fltkd:fl_file_chooser.obj
 0003:00001584       $SG4162                    00436584     fltkd:fl_file_chooser.obj
 0003:00001594       _?vklut@?1??ms2fltk@@YAHHH@Z@4PAGA 00436594     fltkd:Fl_x.obj
 0003:00001794       _resize_bug_fix            00436794     fltkd:Fl_x.obj
 0003:0000179c       _?pmy@?1??mouse_event@@YAHPAVFl_Window@@HHIJ@Z@4HA 0043679c     fltkd:Fl_x.obj
 0003:000017bc       _?buffer@?EI@??WndProc@@YGJPAUHWND__@@IIJ@Z@4PADA 004367bc     fltkd:Fl_x.obj
 0003:000017c0       _fdsets                    004367c0     fltkd:Fl_x.obj
 0003:00001ad4       _?pmx@?1??mouse_event@@YAHPAVFl_Window@@HHIJ@Z@4HA 00436ad4     fltkd:Fl_x.obj
 0003:00001ad8       _?px@?1??mouse_event@@YAHPAVFl_Window@@HHIJ@Z@4HA 00436ad8     fltkd:Fl_x.obj
 0003:00001adc       _?py@?1??mouse_event@@YAHPAVFl_Window@@HHIJ@Z@4HA 00436adc     fltkd:Fl_x.obj
 0003:00001ae8       _?extendedlut@?1??ms2fltk@@YAHHH@Z@4PAGA 00436ae8     fltkd:Fl_x.obj
 0003:00001ce8       _nfds                      00436ce8     fltkd:Fl_x.obj
 0003:00001cec       _fd_array_size             00436cec     fltkd:Fl_x.obj
 0003:00001cf0       _fd                        00436cf0     fltkd:Fl_x.obj
 0003:00001cf4       _?cnt@?1??WndProc@@YGJPAUHWND__@@IIJ@Z@4HA 00436cf4     fltkd:Fl_x.obj
 0003:00001cfc       $SG28179                   00436cfc     fltkd:Fl_x.obj
 0003:00001d04       _rstack                    00436d04     fltkd:fl_rect.obj
 0003:00001d2c       _rstackptr                 00436d2c     fltkd:fl_rect.obj
 0003:00001d38       _undobuffer                00436d38     fltkd:Fl_Input_.obj
 0003:00001d3c       _undobufferlength          00436d3c     fltkd:Fl_Input_.obj
 0003:00001d40       _undowidget                00436d40     fltkd:Fl_Input_.obj
 0003:00001d44       _undoat                    00436d44     fltkd:Fl_Input_.obj
 0003:00001d48       _undoinsert                00436d48     fltkd:Fl_Input_.obj
 0003:00001d4c       _yankcut                   00436d4c     fltkd:Fl_Input_.obj
 0003:00001d50       _up_down_pos               00436d50     fltkd:Fl_Input_.obj
 0003:00001d58       _was_up_down               00436d58     fltkd:Fl_Input_.obj
 0003:00001d5c       _undocut                   00436d5c     fltkd:Fl_Input_.obj
 0003:00001d60       $SG3535                    00436d60     fltkd:Fl_Input_.obj
 0003:00001d64       $SG3578                    00436d64     fltkd:Fl_Input_.obj
 0003:00001d68       _?buf@?1??fl_shortcut_label@@YAPBDH@Z@4PADA 00436d68     fltkd:fl_shortcut.obj
 0003:00001d7c       _first                     00436d7c     fltkd:Fl_Gl_Choice.obj
 0003:00001d80       _cached_window             00436d80     fltkd:Fl_Gl_Choice.obj
 0003:00001d84       _cached_context            00436d84     fltkd:Fl_Gl_Choice.obj
 0003:00001d88       _first_context             00436d88     fltkd:Fl_Gl_Choice.obj
 0003:00002998       _?brushes@?1??fl_brush@@YAPAUHBRUSH__@@XZ@4PAUFl_Brush@@A 00437998     fltkd:fl_color.obj
 0003:00002a58       _?xmap@?1??fl_color@@YAXEEE@Z@4UFl_XMap@@A 00437a58     fltkd:fl_color.obj
 0003:00002a68       _?beenhere@?1??fl_select_palette@@YAPAUHPALETTE__@@XZ@4DA 00437a68     fltkd:fl_color.obj
 0003:00002a78       _p                         00437a78     fltkd:Fl_Menu.obj
 0003:00002a80       _?dummy@?1??popup@Fl_Menu_Item@@QBEPBU2@HHPBDPBU2@PBVFl_Menu_@@@Z@4U2@A 00437a80     fltkd:Fl_Menu.obj
 0003:00002a98       _button                    00437a98     fltkd:Fl_Menu.obj
 0003:00002a9c       _?offcenter@?BA@??handle@Fl_Slider@@IAEHHHHHH@Z@4HA 00437a9c     fltkd:Fl_Slider.obj
 0003:00002aa0       _underline_at              00437aa0     fltkd:fl_draw.obj
 0003:00002ab4       _measure                   00437ab4     fltkd:fl_labeltype.obj
 0003:00002af4       _?whichway@?CL@??handle@Fl_Browser_@@UAEHH@Z@4DA 00437af4     fltkd:Fl_Browser_.obj
 0003:00002af5       _?change@?CL@??handle@Fl_Browser_@@UAEHH@Z@4DA 00437af5     fltkd:Fl_Browser_.obj
 0003:00002af8       _?py@?CL@??handle@Fl_Browser_@@UAEHH@Z@4HA 00437af8     fltkd:Fl_Browser_.obj
 0003:00002afc       _selection_buffer_length   00437afc     fltkd:Fl_cutpaste.obj
 0003:00002b00       _selection_length          00437b00     fltkd:Fl_cutpaste.obj
 0003:00002b04       _selection_buffer          00437b04     fltkd:Fl_cutpaste.obj
 0003:00002b08       _ignore_destroy            00437b08     fltkd:Fl_cutpaste.obj
 0003:00002b09       _beenhere                  00437b09     fltkd:Fl_cutpaste.obj
 0003:00002b10       _GS_ExceptionRecord        00437b10     MSVCRT:gs_report.obj
 0003:00002b60       _GS_ContextRecord          00437b60     MSVCRT:gs_report.obj
 0003:00002e2c       _DebuggerWasPresent        00437e2c     MSVCRT:gs_report.obj
 0003:00002e30       _has_cctor                 00437e30     MSVCRT:crtexew.obj
 0003:00002e34       _mainret                   00437e34     MSVCRT:crtexew.obj
 0003:00002e38       _managedapp                00437e38     MSVCRT:crtexew.obj
 0003:00002e3c       _argc                      00437e3c     MSVCRT:crtexew.obj
 0003:00002e40       _argv                      00437e40     MSVCRT:crtexew.obj
 0003:00002e44       _envp                      00437e44     MSVCRT:crtexew.obj
 0003:00002e48       _argret                    00437e48     MSVCRT:crtexew.obj
 0003:00002e4c       _startinfo                 00437e4c     MSVCRT:crtexew.obj
 0003:00002e60       __Fac_head                 00437e60     msvcprt:locale0_implib.obj
 0003:00002e64       __Fac_tidy_reg             00437e64     msvcprt:locale0_implib.obj
 0004:00000060       $R000000                   00438060     * linker generated manifest res *
